
h8_bench_release:     file format elf64-x86-64


Disassembly of section .init:

0000000000001000 <_init>:
    1000:	f3 0f 1e fa          	endbr64 
    1004:	48 83 ec 08          	sub    $0x8,%rsp
    1008:	48 8b 05 d1 af 00 00 	mov    0xafd1(%rip),%rax        # bfe0 <__gmon_start__@Base>
    100f:	48 85 c0             	test   %rax,%rax
    1012:	74 02                	je     1016 <_init+0x16>
    1014:	ff d0                	call   *%rax
    1016:	48 83 c4 08          	add    $0x8,%rsp
    101a:	c3                   	ret    

Disassembly of section .plt:

0000000000001020 <.plt>:
    1020:	ff 35 8a ae 00 00    	push   0xae8a(%rip)        # beb0 <_GLOBAL_OFFSET_TABLE_+0x8>
    1026:	f2 ff 25 8b ae 00 00 	bnd jmp *0xae8b(%rip)        # beb8 <_GLOBAL_OFFSET_TABLE_+0x10>
    102d:	0f 1f 00             	nopl   (%rax)
    1030:	f3 0f 1e fa          	endbr64 
    1034:	68 00 00 00 00       	push   $0x0
    1039:	f2 e9 e1 ff ff ff    	bnd jmp 1020 <_init+0x20>
    103f:	90                   	nop
    1040:	f3 0f 1e fa          	endbr64 
    1044:	68 01 00 00 00       	push   $0x1
    1049:	f2 e9 d1 ff ff ff    	bnd jmp 1020 <_init+0x20>
    104f:	90                   	nop
    1050:	f3 0f 1e fa          	endbr64 
    1054:	68 02 00 00 00       	push   $0x2
    1059:	f2 e9 c1 ff ff ff    	bnd jmp 1020 <_init+0x20>
    105f:	90                   	nop
    1060:	f3 0f 1e fa          	endbr64 
    1064:	68 03 00 00 00       	push   $0x3
    1069:	f2 e9 b1 ff ff ff    	bnd jmp 1020 <_init+0x20>
    106f:	90                   	nop
    1070:	f3 0f 1e fa          	endbr64 
    1074:	68 04 00 00 00       	push   $0x4
    1079:	f2 e9 a1 ff ff ff    	bnd jmp 1020 <_init+0x20>
    107f:	90                   	nop
    1080:	f3 0f 1e fa          	endbr64 
    1084:	68 05 00 00 00       	push   $0x5
    1089:	f2 e9 91 ff ff ff    	bnd jmp 1020 <_init+0x20>
    108f:	90                   	nop
    1090:	f3 0f 1e fa          	endbr64 
    1094:	68 06 00 00 00       	push   $0x6
    1099:	f2 e9 81 ff ff ff    	bnd jmp 1020 <_init+0x20>
    109f:	90                   	nop
    10a0:	f3 0f 1e fa          	endbr64 
    10a4:	68 07 00 00 00       	push   $0x7
    10a9:	f2 e9 71 ff ff ff    	bnd jmp 1020 <_init+0x20>
    10af:	90                   	nop
    10b0:	f3 0f 1e fa          	endbr64 
    10b4:	68 08 00 00 00       	push   $0x8
    10b9:	f2 e9 61 ff ff ff    	bnd jmp 1020 <_init+0x20>
    10bf:	90                   	nop
    10c0:	f3 0f 1e fa          	endbr64 
    10c4:	68 09 00 00 00       	push   $0x9
    10c9:	f2 e9 51 ff ff ff    	bnd jmp 1020 <_init+0x20>
    10cf:	90                   	nop
    10d0:	f3 0f 1e fa          	endbr64 
    10d4:	68 0a 00 00 00       	push   $0xa
    10d9:	f2 e9 41 ff ff ff    	bnd jmp 1020 <_init+0x20>
    10df:	90                   	nop
    10e0:	f3 0f 1e fa          	endbr64 
    10e4:	68 0b 00 00 00       	push   $0xb
    10e9:	f2 e9 31 ff ff ff    	bnd jmp 1020 <_init+0x20>
    10ef:	90                   	nop
    10f0:	f3 0f 1e fa          	endbr64 
    10f4:	68 0c 00 00 00       	push   $0xc
    10f9:	f2 e9 21 ff ff ff    	bnd jmp 1020 <_init+0x20>
    10ff:	90                   	nop
    1100:	f3 0f 1e fa          	endbr64 
    1104:	68 0d 00 00 00       	push   $0xd
    1109:	f2 e9 11 ff ff ff    	bnd jmp 1020 <_init+0x20>
    110f:	90                   	nop
    1110:	f3 0f 1e fa          	endbr64 
    1114:	68 0e 00 00 00       	push   $0xe
    1119:	f2 e9 01 ff ff ff    	bnd jmp 1020 <_init+0x20>
    111f:	90                   	nop
    1120:	f3 0f 1e fa          	endbr64 
    1124:	68 0f 00 00 00       	push   $0xf
    1129:	f2 e9 f1 fe ff ff    	bnd jmp 1020 <_init+0x20>
    112f:	90                   	nop
    1130:	f3 0f 1e fa          	endbr64 
    1134:	68 10 00 00 00       	push   $0x10
    1139:	f2 e9 e1 fe ff ff    	bnd jmp 1020 <_init+0x20>
    113f:	90                   	nop
    1140:	f3 0f 1e fa          	endbr64 
    1144:	68 11 00 00 00       	push   $0x11
    1149:	f2 e9 d1 fe ff ff    	bnd jmp 1020 <_init+0x20>
    114f:	90                   	nop
    1150:	f3 0f 1e fa          	endbr64 
    1154:	68 12 00 00 00       	push   $0x12
    1159:	f2 e9 c1 fe ff ff    	bnd jmp 1020 <_init+0x20>
    115f:	90                   	nop
    1160:	f3 0f 1e fa          	endbr64 
    1164:	68 13 00 00 00       	push   $0x13
    1169:	f2 e9 b1 fe ff ff    	bnd jmp 1020 <_init+0x20>
    116f:	90                   	nop
    1170:	f3 0f 1e fa          	endbr64 
    1174:	68 14 00 00 00       	push   $0x14
    1179:	f2 e9 a1 fe ff ff    	bnd jmp 1020 <_init+0x20>
    117f:	90                   	nop
    1180:	f3 0f 1e fa          	endbr64 
    1184:	68 15 00 00 00       	push   $0x15
    1189:	f2 e9 91 fe ff ff    	bnd jmp 1020 <_init+0x20>
    118f:	90                   	nop
    1190:	f3 0f 1e fa          	endbr64 
    1194:	68 16 00 00 00       	push   $0x16
    1199:	f2 e9 81 fe ff ff    	bnd jmp 1020 <_init+0x20>
    119f:	90                   	nop
    11a0:	f3 0f 1e fa          	endbr64 
    11a4:	68 17 00 00 00       	push   $0x17
    11a9:	f2 e9 71 fe ff ff    	bnd jmp 1020 <_init+0x20>
    11af:	90                   	nop
    11b0:	f3 0f 1e fa          	endbr64 
    11b4:	68 18 00 00 00       	push   $0x18
    11b9:	f2 e9 61 fe ff ff    	bnd jmp 1020 <_init+0x20>
    11bf:	90                   	nop
    11c0:	f3 0f 1e fa          	endbr64 
    11c4:	68 19 00 00 00       	push   $0x19
    11c9:	f2 e9 51 fe ff ff    	bnd jmp 1020 <_init+0x20>
    11cf:	90                   	nop
    11d0:	f3 0f 1e fa          	endbr64 
    11d4:	68 1a 00 00 00       	push   $0x1a
    11d9:	f2 e9 41 fe ff ff    	bnd jmp 1020 <_init+0x20>
    11df:	90                   	nop
    11e0:	f3 0f 1e fa          	endbr64 
    11e4:	68 1b 00 00 00       	push   $0x1b
    11e9:	f2 e9 31 fe ff ff    	bnd jmp 1020 <_init+0x20>
    11ef:	90                   	nop
    11f0:	f3 0f 1e fa          	endbr64 
    11f4:	68 1c 00 00 00       	push   $0x1c
    11f9:	f2 e9 21 fe ff ff    	bnd jmp 1020 <_init+0x20>
    11ff:	90                   	nop
    1200:	f3 0f 1e fa          	endbr64 
    1204:	68 1d 00 00 00       	push   $0x1d
    1209:	f2 e9 11 fe ff ff    	bnd jmp 1020 <_init+0x20>
    120f:	90                   	nop
    1210:	f3 0f 1e fa          	endbr64 
    1214:	68 1e 00 00 00       	push   $0x1e
    1219:	f2 e9 01 fe ff ff    	bnd jmp 1020 <_init+0x20>
    121f:	90                   	nop
    1220:	f3 0f 1e fa          	endbr64 
    1224:	68 1f 00 00 00       	push   $0x1f
    1229:	f2 e9 f1 fd ff ff    	bnd jmp 1020 <_init+0x20>
    122f:	90                   	nop
    1230:	f3 0f 1e fa          	endbr64 
    1234:	68 20 00 00 00       	push   $0x20
    1239:	f2 e9 e1 fd ff ff    	bnd jmp 1020 <_init+0x20>
    123f:	90                   	nop
    1240:	f3 0f 1e fa          	endbr64 
    1244:	68 21 00 00 00       	push   $0x21
    1249:	f2 e9 d1 fd ff ff    	bnd jmp 1020 <_init+0x20>
    124f:	90                   	nop

Disassembly of section .plt.got:

0000000000001250 <__cxa_finalize@plt>:
    1250:	f3 0f 1e fa          	endbr64 
    1254:	f2 ff 25 95 ad 00 00 	bnd jmp *0xad95(%rip)        # bff0 <__cxa_finalize@GLIBC_2.2.5>
    125b:	0f 1f 44 00 00       	nopl   0x0(%rax,%rax,1)

Disassembly of section .plt.sec:

0000000000001260 <getenv@plt>:
    1260:	f3 0f 1e fa          	endbr64 
    1264:	f2 ff 25 55 ac 00 00 	bnd jmp *0xac55(%rip)        # bec0 <getenv@GLIBC_2.2.5>
    126b:	0f 1f 44 00 00       	nopl   0x0(%rax,%rax,1)

0000000000001270 <free@plt>:
    1270:	f3 0f 1e fa          	endbr64 
    1274:	f2 ff 25 4d ac 00 00 	bnd jmp *0xac4d(%rip)        # bec8 <free@GLIBC_2.2.5>
    127b:	0f 1f 44 00 00       	nopl   0x0(%rax,%rax,1)

0000000000001280 <abort@plt>:
    1280:	f3 0f 1e fa          	endbr64 
    1284:	f2 ff 25 45 ac 00 00 	bnd jmp *0xac45(%rip)        # bed0 <abort@GLIBC_2.2.5>
    128b:	0f 1f 44 00 00       	nopl   0x0(%rax,%rax,1)

0000000000001290 <pthread_barrier_init@plt>:
    1290:	f3 0f 1e fa          	endbr64 
    1294:	f2 ff 25 3d ac 00 00 	bnd jmp *0xac3d(%rip)        # bed8 <pthread_barrier_init@GLIBC_2.34>
    129b:	0f 1f 44 00 00       	nopl   0x0(%rax,%rax,1)

00000000000012a0 <pthread_barrier_wait@plt>:
    12a0:	f3 0f 1e fa          	endbr64 
    12a4:	f2 ff 25 35 ac 00 00 	bnd jmp *0xac35(%rip)        # bee0 <pthread_barrier_wait@GLIBC_2.34>
    12ab:	0f 1f 44 00 00       	nopl   0x0(%rax,%rax,1)

00000000000012b0 <qsort@plt>:
    12b0:	f3 0f 1e fa          	endbr64 
    12b4:	f2 ff 25 2d ac 00 00 	bnd jmp *0xac2d(%rip)        # bee8 <qsort@GLIBC_2.2.5>
    12bb:	0f 1f 44 00 00       	nopl   0x0(%rax,%rax,1)

00000000000012c0 <pthread_getspecific@plt>:
    12c0:	f3 0f 1e fa          	endbr64 
    12c4:	f2 ff 25 25 ac 00 00 	bnd jmp *0xac25(%rip)        # bef0 <pthread_getspecific@GLIBC_2.34>
    12cb:	0f 1f 44 00 00       	nopl   0x0(%rax,%rax,1)

00000000000012d0 <clock_gettime@plt>:
    12d0:	f3 0f 1e fa          	endbr64 
    12d4:	f2 ff 25 1d ac 00 00 	bnd jmp *0xac1d(%rip)        # bef8 <clock_gettime@GLIBC_2.17>
    12db:	0f 1f 44 00 00       	nopl   0x0(%rax,%rax,1)

00000000000012e0 <fclose@plt>:
    12e0:	f3 0f 1e fa          	endbr64 
    12e4:	f2 ff 25 15 ac 00 00 	bnd jmp *0xac15(%rip)        # bf00 <fclose@GLIBC_2.2.5>
    12eb:	0f 1f 44 00 00       	nopl   0x0(%rax,%rax,1)

00000000000012f0 <__stack_chk_fail@plt>:
    12f0:	f3 0f 1e fa          	endbr64 
    12f4:	f2 ff 25 0d ac 00 00 	bnd jmp *0xac0d(%rip)        # bf08 <__stack_chk_fail@GLIBC_2.4>
    12fb:	0f 1f 44 00 00       	nopl   0x0(%rax,%rax,1)

0000000000001300 <mmap@plt>:
    1300:	f3 0f 1e fa          	endbr64 
    1304:	f2 ff 25 05 ac 00 00 	bnd jmp *0xac05(%rip)        # bf10 <mmap@GLIBC_2.2.5>
    130b:	0f 1f 44 00 00       	nopl   0x0(%rax,%rax,1)

0000000000001310 <pthread_barrier_destroy@plt>:
    1310:	f3 0f 1e fa          	endbr64 
    1314:	f2 ff 25 fd ab 00 00 	bnd jmp *0xabfd(%rip)        # bf18 <pthread_barrier_destroy@GLIBC_2.34>
    131b:	0f 1f 44 00 00       	nopl   0x0(%rax,%rax,1)

0000000000001320 <pthread_key_create@plt>:
    1320:	f3 0f 1e fa          	endbr64 
    1324:	f2 ff 25 f5 ab 00 00 	bnd jmp *0xabf5(%rip)        # bf20 <pthread_key_create@GLIBC_2.34>
    132b:	0f 1f 44 00 00       	nopl   0x0(%rax,%rax,1)

0000000000001330 <memset@plt>:
    1330:	f3 0f 1e fa          	endbr64 
    1334:	f2 ff 25 ed ab 00 00 	bnd jmp *0xabed(%rip)        # bf28 <memset@GLIBC_2.2.5>
    133b:	0f 1f 44 00 00       	nopl   0x0(%rax,%rax,1)

0000000000001340 <sched_yield@plt>:
    1340:	f3 0f 1e fa          	endbr64 
    1344:	f2 ff 25 e5 ab 00 00 	bnd jmp *0xabe5(%rip)        # bf30 <sched_yield@GLIBC_2.2.5>
    134b:	0f 1f 44 00 00       	nopl   0x0(%rax,%rax,1)

0000000000001350 <fgets@plt>:
    1350:	f3 0f 1e fa          	endbr64 
    1354:	f2 ff 25 dd ab 00 00 	bnd jmp *0xabdd(%rip)        # bf38 <fgets@GLIBC_2.2.5>
    135b:	0f 1f 44 00 00       	nopl   0x0(%rax,%rax,1)

0000000000001360 <calloc@plt>:
    1360:	f3 0f 1e fa          	endbr64 
    1364:	f2 ff 25 d5 ab 00 00 	bnd jmp *0xabd5(%rip)        # bf40 <calloc@GLIBC_2.2.5>
    136b:	0f 1f 44 00 00       	nopl   0x0(%rax,%rax,1)

0000000000001370 <strcmp@plt>:
    1370:	f3 0f 1e fa          	endbr64 
    1374:	f2 ff 25 cd ab 00 00 	bnd jmp *0xabcd(%rip)        # bf48 <strcmp@GLIBC_2.2.5>
    137b:	0f 1f 44 00 00       	nopl   0x0(%rax,%rax,1)

0000000000001380 <strtol@plt>:
    1380:	f3 0f 1e fa          	endbr64 
    1384:	f2 ff 25 c5 ab 00 00 	bnd jmp *0xabc5(%rip)        # bf50 <strtol@GLIBC_2.2.5>
    138b:	0f 1f 44 00 00       	nopl   0x0(%rax,%rax,1)

0000000000001390 <pthread_mutex_unlock@plt>:
    1390:	f3 0f 1e fa          	endbr64 
    1394:	f2 ff 25 bd ab 00 00 	bnd jmp *0xabbd(%rip)        # bf58 <pthread_mutex_unlock@GLIBC_2.2.5>
    139b:	0f 1f 44 00 00       	nopl   0x0(%rax,%rax,1)

00000000000013a0 <malloc@plt>:
    13a0:	f3 0f 1e fa          	endbr64 
    13a4:	f2 ff 25 b5 ab 00 00 	bnd jmp *0xabb5(%rip)        # bf60 <malloc@GLIBC_2.2.5>
    13ab:	0f 1f 44 00 00       	nopl   0x0(%rax,%rax,1)

00000000000013b0 <__isoc99_sscanf@plt>:
    13b0:	f3 0f 1e fa          	endbr64 
    13b4:	f2 ff 25 ad ab 00 00 	bnd jmp *0xabad(%rip)        # bf68 <__isoc99_sscanf@GLIBC_2.7>
    13bb:	0f 1f 44 00 00       	nopl   0x0(%rax,%rax,1)

00000000000013c0 <__printf_chk@plt>:
    13c0:	f3 0f 1e fa          	endbr64 
    13c4:	f2 ff 25 a5 ab 00 00 	bnd jmp *0xaba5(%rip)        # bf70 <__printf_chk@GLIBC_2.3.4>
    13cb:	0f 1f 44 00 00       	nopl   0x0(%rax,%rax,1)

00000000000013d0 <pthread_create@plt>:
    13d0:	f3 0f 1e fa          	endbr64 
    13d4:	f2 ff 25 9d ab 00 00 	bnd jmp *0xab9d(%rip)        # bf78 <pthread_create@GLIBC_2.34>
    13db:	0f 1f 44 00 00       	nopl   0x0(%rax,%rax,1)

00000000000013e0 <madvise@plt>:
    13e0:	f3 0f 1e fa          	endbr64 
    13e4:	f2 ff 25 95 ab 00 00 	bnd jmp *0xab95(%rip)        # bf80 <madvise@GLIBC_2.2.5>
    13eb:	0f 1f 44 00 00       	nopl   0x0(%rax,%rax,1)

00000000000013f0 <fopen@plt>:
    13f0:	f3 0f 1e fa          	endbr64 
    13f4:	f2 ff 25 8d ab 00 00 	bnd jmp *0xab8d(%rip)        # bf88 <fopen@GLIBC_2.2.5>
    13fb:	0f 1f 44 00 00       	nopl   0x0(%rax,%rax,1)

0000000000001400 <getrusage@plt>:
    1400:	f3 0f 1e fa          	endbr64 
    1404:	f2 ff 25 85 ab 00 00 	bnd jmp *0xab85(%rip)        # bf90 <getrusage@GLIBC_2.2.5>
    140b:	0f 1f 44 00 00       	nopl   0x0(%rax,%rax,1)

0000000000001410 <perror@plt>:
    1410:	f3 0f 1e fa          	endbr64 
    1414:	f2 ff 25 7d ab 00 00 	bnd jmp *0xab7d(%rip)        # bf98 <perror@GLIBC_2.2.5>
    141b:	0f 1f 44 00 00       	nopl   0x0(%rax,%rax,1)

0000000000001420 <__fprintf_chk@plt>:
    1420:	f3 0f 1e fa          	endbr64 
    1424:	f2 ff 25 75 ab 00 00 	bnd jmp *0xab75(%rip)        # bfa0 <__fprintf_chk@GLIBC_2.3.4>
    142b:	0f 1f 44 00 00       	nopl   0x0(%rax,%rax,1)

0000000000001430 <pthread_join@plt>:
    1430:	f3 0f 1e fa          	endbr64 
    1434:	f2 ff 25 6d ab 00 00 	bnd jmp *0xab6d(%rip)        # bfa8 <pthread_join@GLIBC_2.34>
    143b:	0f 1f 44 00 00       	nopl   0x0(%rax,%rax,1)

0000000000001440 <pthread_mutex_init@plt>:
    1440:	f3 0f 1e fa          	endbr64 
    1444:	f2 ff 25 65 ab 00 00 	bnd jmp *0xab65(%rip)        # bfb0 <pthread_mutex_init@GLIBC_2.2.5>
    144b:	0f 1f 44 00 00       	nopl   0x0(%rax,%rax,1)

0000000000001450 <pthread_once@plt>:
    1450:	f3 0f 1e fa          	endbr64 
    1454:	f2 ff 25 5d ab 00 00 	bnd jmp *0xab5d(%rip)        # bfb8 <pthread_once@GLIBC_2.34>
    145b:	0f 1f 44 00 00       	nopl   0x0(%rax,%rax,1)

0000000000001460 <pthread_mutex_lock@plt>:
    1460:	f3 0f 1e fa          	endbr64 
    1464:	f2 ff 25 55 ab 00 00 	bnd jmp *0xab55(%rip)        # bfc0 <pthread_mutex_lock@GLIBC_2.2.5>
    146b:	0f 1f 44 00 00       	nopl   0x0(%rax,%rax,1)

0000000000001470 <pthread_setspecific@plt>:
    1470:	f3 0f 1e fa          	endbr64 
    1474:	f2 ff 25 4d ab 00 00 	bnd jmp *0xab4d(%rip)        # bfc8 <pthread_setspecific@GLIBC_2.34>
    147b:	0f 1f 44 00 00       	nopl   0x0(%rax,%rax,1)

Disassembly of section .text:

0000000000001480 <h8_span_publish_enter.cold>:
    1480:	e8 fb fd ff ff       	call   1280 <abort@plt>

0000000000001485 <h8_owner_lifecycle_enter.cold>:
    1485:	e8 f6 fd ff ff       	call   1280 <abort@plt>

000000000000148a <h8_owner_lifecycle_exit.cold>:
    148a:	50                   	push   %rax
    148b:	e8 f0 fd ff ff       	call   1280 <abort@plt>

0000000000001490 <h8_owner_exit.cold>:
    1490:	e8 eb fd ff ff       	call   1280 <abort@plt>

0000000000001495 <h8_span_collect_remote.cold>:
    1495:	e8 e6 fd ff ff       	call   1280 <abort@plt>
    149a:	66 0f 1f 44 00 00    	nopw   0x0(%rax,%rax,1)

00000000000014a0 <main>:
    14a0:	f3 0f 1e fa          	endbr64 
    14a4:	41 57                	push   %r15
    14a6:	41 56                	push   %r14
    14a8:	41 55                	push   %r13
    14aa:	41 54                	push   %r12
    14ac:	55                   	push   %rbp
    14ad:	53                   	push   %rbx
    14ae:	48 89 f3             	mov    %rsi,%rbx
    14b1:	48 81 ec a8 07 00 00 	sub    $0x7a8,%rsp
    14b8:	64 48 8b 04 25 28 00 00 00 	mov    %fs:0x28,%rax
    14c1:	48 89 84 24 98 07 00 00 	mov    %rax,0x798(%rsp)
    14c9:	48 b8 0a 00 00 00 10 00 00 00 	movabs $0x100000000a,%rax
    14d3:	48 8d 94 24 20 01 00 00 	lea    0x120(%rsp),%rdx
    14db:	48 c7 84 24 28 01 00 00 a0 86 01 00 	movq   $0x186a0,0x128(%rsp)
    14e7:	48 c7 84 24 30 01 00 00 10 00 00 00 	movq   $0x10,0x130(%rsp)
    14f3:	48 c7 84 24 38 01 00 00 00 08 00 00 	movq   $0x800,0x138(%rsp)
    14ff:	48 c7 84 24 40 01 00 00 00 00 00 00 	movq   $0x0,0x140(%rsp)
    150b:	48 c7 84 24 48 01 00 00 00 00 00 00 	movq   $0x0,0x148(%rsp)
    1517:	48 89 94 24 90 00 00 00 	mov    %rdx,0x90(%rsp)
    151f:	48 89 84 24 20 01 00 00 	mov    %rax,0x120(%rsp)
    1527:	e8 d4 54 00 00       	call   6a00 <h8_parse_options>
    152c:	89 44 24 54          	mov    %eax,0x54(%rsp)
    1530:	85 c0                	test   %eax,%eax
    1532:	75 4c                	jne    1580 <main+0xe0>
    1534:	48 63 ac 24 20 01 00 00 	movslq 0x120(%rsp),%rbp
    153c:	85 ed                	test   %ebp,%ebp
    153e:	7e 40                	jle    1580 <main+0xe0>
    1540:	83 bc 24 24 01 00 00 00 	cmpl   $0x0,0x124(%rsp)
    1548:	7e 36                	jle    1580 <main+0xe0>
    154a:	48 83 bc 24 28 01 00 00 00 	cmpq   $0x0,0x128(%rsp)
    1553:	74 2b                	je     1580 <main+0xe0>
    1555:	48 8b 84 24 30 01 00 00 	mov    0x130(%rsp),%rax
    155d:	48 85 c0             	test   %rax,%rax
    1560:	74 1e                	je     1580 <main+0xe0>
    1562:	48 3b 84 24 38 01 00 00 	cmp    0x138(%rsp),%rax
    156a:	77 14                	ja     1580 <main+0xe0>
    156c:	83 bc 24 40 01 00 00 64 	cmpl   $0x64,0x140(%rsp)
    1574:	77 0a                	ja     1580 <main+0xe0>
    1576:	83 bc 24 44 01 00 00 01 	cmpl   $0x1,0x144(%rsp)
    157e:	76 3d                	jbe    15bd <main+0x11d>
    1580:	48 8b 3b             	mov    (%rbx),%rdi
    1583:	e8 48 54 00 00       	call   69d0 <h8_usage>
    1588:	c7 44 24 54 01 00 00 00 	movl   $0x1,0x54(%rsp)
    1590:	48 8b 84 24 98 07 00 00 	mov    0x798(%rsp),%rax
    1598:	64 48 2b 04 25 28 00 00 00 	sub    %fs:0x28,%rax
    15a1:	0f 85 16 1b 00 00    	jne    30bd <main+0x1c1d>
    15a7:	8b 44 24 54          	mov    0x54(%rsp),%eax
    15ab:	48 81 c4 a8 07 00 00 	add    $0x7a8,%rsp
    15b2:	5b                   	pop    %rbx
    15b3:	5d                   	pop    %rbp
    15b4:	41 5c                	pop    %r12
    15b6:	41 5d                	pop    %r13
    15b8:	41 5e                	pop    %r14
    15ba:	41 5f                	pop    %r15
    15bc:	c3                   	ret    
    15bd:	be 08 00 00 00       	mov    $0x8,%esi
    15c2:	48 89 ef             	mov    %rbp,%rdi
    15c5:	e8 96 fd ff ff       	call   1360 <calloc@plt>
    15ca:	be 08 00 00 00       	mov    $0x8,%esi
    15cf:	48 89 ef             	mov    %rbp,%rdi
    15d2:	48 89 84 24 b8 00 00 00 	mov    %rax,0xb8(%rsp)
    15da:	48 89 c3             	mov    %rax,%rbx
    15dd:	e8 7e fd ff ff       	call   1360 <calloc@plt>
    15e2:	be 08 00 00 00       	mov    $0x8,%esi
    15e7:	48 89 ef             	mov    %rbp,%rdi
    15ea:	48 89 84 24 00 01 00 00 	mov    %rax,0x100(%rsp)
    15f2:	49 89 c6             	mov    %rax,%r14
    15f5:	e8 66 fd ff ff       	call   1360 <calloc@plt>
    15fa:	be 08 00 00 00       	mov    $0x8,%esi
    15ff:	48 89 ef             	mov    %rbp,%rdi
    1602:	48 89 84 24 08 01 00 00 	mov    %rax,0x108(%rsp)
    160a:	49 89 c7             	mov    %rax,%r15
    160d:	e8 4e fd ff ff       	call   1360 <calloc@plt>
    1612:	be 08 00 00 00       	mov    $0x8,%esi
    1617:	48 89 ef             	mov    %rbp,%rdi
    161a:	48 89 84 24 a8 00 00 00 	mov    %rax,0xa8(%rsp)
    1622:	49 89 c4             	mov    %rax,%r12
    1625:	e8 36 fd ff ff       	call   1360 <calloc@plt>
    162a:	be 08 00 00 00       	mov    $0x8,%esi
    162f:	48 89 ef             	mov    %rbp,%rdi
    1632:	48 89 84 24 b0 00 00 00 	mov    %rax,0xb0(%rsp)
    163a:	49 89 c5             	mov    %rax,%r13
    163d:	e8 1e fd ff ff       	call   1360 <calloc@plt>
    1642:	be 08 00 00 00       	mov    $0x8,%esi
    1647:	48 89 ef             	mov    %rbp,%rdi
    164a:	48 89 84 24 d0 00 00 00 	mov    %rax,0xd0(%rsp)
    1652:	e8 09 fd ff ff       	call   1360 <calloc@plt>
    1657:	be 08 00 00 00       	mov    $0x8,%esi
    165c:	48 89 ef             	mov    %rbp,%rdi
    165f:	48 89 84 24 f0 00 00 00 	mov    %rax,0xf0(%rsp)
    1667:	e8 f4 fc ff ff       	call   1360 <calloc@plt>
    166c:	be 08 00 00 00       	mov    $0x8,%esi
    1671:	48 89 ef             	mov    %rbp,%rdi
    1674:	48 89 84 24 d8 00 00 00 	mov    %rax,0xd8(%rsp)
    167c:	e8 df fc ff ff       	call   1360 <calloc@plt>
    1681:	be 08 00 00 00       	mov    $0x8,%esi
    1686:	48 89 ef             	mov    %rbp,%rdi
    1689:	48 89 84 24 e0 00 00 00 	mov    %rax,0xe0(%rsp)
    1691:	e8 ca fc ff ff       	call   1360 <calloc@plt>
    1696:	be 08 00 00 00       	mov    $0x8,%esi
    169b:	48 89 ef             	mov    %rbp,%rdi
    169e:	48 89 84 24 e8 00 00 00 	mov    %rax,0xe8(%rsp)
    16a6:	e8 b5 fc ff ff       	call   1360 <calloc@plt>
    16ab:	48 89 84 24 f8 00 00 00 	mov    %rax,0xf8(%rsp)
    16b3:	48 89 c6             	mov    %rax,%rsi
    16b6:	48 85 db             	test   %rbx,%rbx
    16b9:	0f 84 ee 1a 00 00    	je     31ad <main+0x1d0d>
    16bf:	4d 85 f6             	test   %r14,%r14
    16c2:	0f 84 e5 1a 00 00    	je     31ad <main+0x1d0d>
    16c8:	4d 85 ff             	test   %r15,%r15
    16cb:	0f 84 dc 1a 00 00    	je     31ad <main+0x1d0d>
    16d1:	4d 85 e4             	test   %r12,%r12
    16d4:	0f 84 d3 1a 00 00    	je     31ad <main+0x1d0d>
    16da:	4d 85 ed             	test   %r13,%r13
    16dd:	0f 84 ca 1a 00 00    	je     31ad <main+0x1d0d>
    16e3:	48 83 bc 24 d0 00 00 00 00 	cmpq   $0x0,0xd0(%rsp)
    16ec:	0f 84 bb 1a 00 00    	je     31ad <main+0x1d0d>
    16f2:	48 83 bc 24 f0 00 00 00 00 	cmpq   $0x0,0xf0(%rsp)
    16fb:	0f 84 ac 1a 00 00    	je     31ad <main+0x1d0d>
    1701:	48 83 bc 24 d8 00 00 00 00 	cmpq   $0x0,0xd8(%rsp)
    170a:	0f 84 9d 1a 00 00    	je     31ad <main+0x1d0d>
    1710:	48 83 bc 24 e0 00 00 00 00 	cmpq   $0x0,0xe0(%rsp)
    1719:	0f 94 c0             	sete   %al
    171c:	48 83 bc 24 e8 00 00 00 00 	cmpq   $0x0,0xe8(%rsp)
    1725:	0f 94 c2             	sete   %dl
    1728:	08 d0                	or     %dl,%al
    172a:	0f 85 7d 1a 00 00    	jne    31ad <main+0x1d0d>
    1730:	48 85 f6             	test   %rsi,%rsi
    1733:	0f 84 74 1a 00 00    	je     31ad <main+0x1d0d>
    1739:	48 c7 44 24 60 00 00 00 00 	movq   $0x0,0x60(%rsp)
    1742:	45 31 ff             	xor    %r15d,%r15d
    1745:	48 c7 44 24 68 00 00 00 00 	movq   $0x0,0x68(%rsp)
    174e:	48 c7 44 24 58 00 00 00 00 	movq   $0x0,0x58(%rsp)
    1757:	48 c7 84 24 88 00 00 00 00 00 00 00 	movq   $0x0,0x88(%rsp)
    1763:	48 c7 84 24 80 00 00 00 00 00 00 00 	movq   $0x0,0x80(%rsp)
    176f:	48 c7 44 24 78 00 00 00 00 	movq   $0x0,0x78(%rsp)
    1778:	48 c7 44 24 70 00 00 00 00 	movq   $0x0,0x70(%rsp)
    1781:	48 63 ac 24 24 01 00 00 	movslq 0x124(%rsp),%rbp
    1789:	be 28 00 00 00       	mov    $0x28,%esi
    178e:	44 89 bc 24 10 01 00 00 	mov    %r15d,0x110(%rsp)
    1796:	44 89 bc 24 14 01 00 00 	mov    %r15d,0x114(%rsp)
    179e:	48 89 ef             	mov    %rbp,%rdi
    17a1:	49 89 ec             	mov    %rbp,%r12
    17a4:	e8 b7 fb ff ff       	call   1360 <calloc@plt>
    17a9:	be 58 02 00 00       	mov    $0x258,%esi
    17ae:	48 89 ef             	mov    %rbp,%rdi
    17b1:	48 89 44 24 18       	mov    %rax,0x18(%rsp)
    17b6:	48 89 c3             	mov    %rax,%rbx
    17b9:	e8 a2 fb ff ff       	call   1360 <calloc@plt>
    17be:	be 08 00 00 00       	mov    $0x8,%esi
    17c3:	48 89 ef             	mov    %rbp,%rdi
    17c6:	48 89 84 24 98 00 00 00 	mov    %rax,0x98(%rsp)
    17ce:	49 89 c5             	mov    %rax,%r13
    17d1:	e8 8a fb ff ff       	call   1360 <calloc@plt>
    17d6:	be 04 00 00 00       	mov    $0x4,%esi
    17db:	48 89 ef             	mov    %rbp,%rdi
    17de:	49 89 c6             	mov    %rax,%r14
    17e1:	e8 7a fb ff ff       	call   1360 <calloc@plt>
    17e6:	48 89 44 24 20       	mov    %rax,0x20(%rsp)
    17eb:	48 85 db             	test   %rbx,%rbx
    17ee:	0f 84 ec 18 00 00    	je     30e0 <main+0x1c40>
    17f4:	4d 85 ed             	test   %r13,%r13
    17f7:	0f 84 e3 18 00 00    	je     30e0 <main+0x1c40>
    17fd:	4d 85 f6             	test   %r14,%r14
    1800:	0f 84 da 18 00 00    	je     30e0 <main+0x1c40>
    1806:	48 85 c0             	test   %rax,%rax
    1809:	0f 84 d1 18 00 00    	je     30e0 <main+0x1c40>
    180f:	85 ed                	test   %ebp,%ebp
    1811:	7e 67                	jle    187a <main+0x3da>
    1813:	44 89 e3             	mov    %r12d,%ebx
    1816:	48 8b 44 24 18       	mov    0x18(%rsp),%rax
    181b:	8b ac 24 44 01 00 00 	mov    0x144(%rsp),%ebp
    1822:	48 6b db 28          	imul   $0x28,%rbx,%rbx
    1826:	49 89 c5             	mov    %rax,%r13
    1829:	48 01 c3             	add    %rax,%rbx
    182c:	eb 3e                	jmp    186c <main+0x3cc>
    182e:	66 90                	xchg   %ax,%ax
    1830:	48 8b bc 24 48 01 00 00 	mov    0x148(%rsp),%rdi
    1838:	48 85 ff             	test   %rdi,%rdi
    183b:	48 0f 44 bc 24 28 01 00 00 	cmove  0x128(%rsp),%rdi
    1844:	48 83 c7 01          	add    $0x1,%rdi
    1848:	49 89 7d 10          	mov    %rdi,0x10(%r13)
    184c:	be 08 00 00 00       	mov    $0x8,%esi
    1851:	e8 0a fb ff ff       	call   1360 <calloc@plt>
    1856:	49 89 45 00          	mov    %rax,0x0(%r13)
    185a:	48 85 c0             	test   %rax,%rax
    185d:	0f 84 5a 17 00 00    	je     2fbd <main+0x1b1d>
    1863:	49 83 c5 28          	add    $0x28,%r13
    1867:	49 39 dd             	cmp    %rbx,%r13
    186a:	74 0e                	je     187a <main+0x3da>
    186c:	85 ed                	test   %ebp,%ebp
    186e:	75 c0                	jne    1830 <main+0x390>
    1870:	48 8b bc 24 28 01 00 00 	mov    0x128(%rsp),%rdi
    1878:	eb ce                	jmp    1848 <main+0x3a8>
    187a:	48 8d 84 24 70 07 00 00 	lea    0x770(%rsp),%rax
    1882:	44 89 e2             	mov    %r12d,%edx
    1885:	31 f6                	xor    %esi,%esi
    1887:	48 89 c7             	mov    %rax,%rdi
    188a:	48 89 84 24 a0 00 00 00 	mov    %rax,0xa0(%rsp)
    1892:	e8 f9 f9 ff ff       	call   1290 <pthread_barrier_init@plt>
    1897:	48 8d 84 24 50 01 00 00 	lea    0x150(%rsp),%rax
    189f:	31 ff                	xor    %edi,%edi
    18a1:	48 89 c6             	mov    %rax,%rsi
    18a4:	48 89 84 24 18 01 00 00 	mov    %rax,0x118(%rsp)
    18ac:	e8 4f fb ff ff       	call   1400 <getrusage@plt>
    18b1:	e8 ea 4e 00 00       	call   67a0 <h8_now_ns>
    18b6:	83 bc 24 24 01 00 00 00 	cmpl   $0x0,0x124(%rsp)
    18be:	48 89 84 24 c0 00 00 00 	mov    %rax,0xc0(%rsp)
    18c6:	0f 8e 62 14 00 00    	jle    2d2e <main+0x188e>
    18cc:	4d 89 f4             	mov    %r14,%r12
    18cf:	4c 89 74 24 08       	mov    %r14,0x8(%rsp)
    18d4:	48 8b 9c 24 98 00 00 00 	mov    0x98(%rsp),%rbx
    18dc:	31 ed                	xor    %ebp,%ebp
    18de:	44 69 ac 24 10 01 00 00 83 00 00 00 	imul   $0x83,0x110(%rsp),%r13d
    18ea:	4c 89 7c 24 10       	mov    %r15,0x10(%rsp)
    18ef:	4d 89 e7             	mov    %r12,%r15
    18f2:	4c 8b a4 24 90 00 00 00 	mov    0x90(%rsp),%r12
    18fa:	45 89 ee             	mov    %r13d,%r14d
    18fd:	4c 8b ac 24 a0 00 00 00 	mov    0xa0(%rsp),%r13
    1905:	0f 1f 00             	nopl   (%rax)
    1908:	48 8b 44 24 18       	mov    0x18(%rsp),%rax
    190d:	89 2b                	mov    %ebp,(%rbx)
    190f:	48 89 d9             	mov    %rbx,%rcx
    1912:	4c 89 ff             	mov    %r15,%rdi
    1915:	4c 89 63 08          	mov    %r12,0x8(%rbx)
    1919:	48 8d 15 50 48 00 00 	lea    0x4850(%rip),%rdx        # 6170 <h8_bench_thread_main>
    1920:	31 f6                	xor    %esi,%esi
    1922:	83 c5 01             	add    $0x1,%ebp
    1925:	48 89 43 10          	mov    %rax,0x10(%rbx)
    1929:	48 8b 44 24 20       	mov    0x20(%rsp),%rax
    192e:	48 81 c3 58 02 00 00 	add    $0x258,%rbx
    1935:	49 83 c7 08          	add    $0x8,%r15
    1939:	4c 89 ab c8 fd ff ff 	mov    %r13,-0x238(%rbx)
    1940:	48 89 83 c0 fd ff ff 	mov    %rax,-0x240(%rbx)
    1947:	44 89 f0             	mov    %r14d,%eax
    194a:	41 83 c6 11          	add    $0x11,%r14d
    194e:	35 b9 79 37 9e       	xor    $0x9e3779b9,%eax
    1953:	c7 43 f8 00 00 00 00 	movl   $0x0,-0x8(%rbx)
    195a:	89 83 d0 fd ff ff    	mov    %eax,-0x230(%rbx)
    1960:	e8 6b fa ff ff       	call   13d0 <pthread_create@plt>
    1965:	8b 84 24 24 01 00 00 	mov    0x124(%rsp),%eax
    196c:	39 e8                	cmp    %ebp,%eax
    196e:	7f 98                	jg     1908 <main+0x468>
    1970:	4c 8b 74 24 08       	mov    0x8(%rsp),%r14
    1975:	4c 8b 7c 24 10       	mov    0x10(%rsp),%r15
    197a:	85 c0                	test   %eax,%eax
    197c:	0f 8e ac 13 00 00    	jle    2d2e <main+0x188e>
    1982:	48 8b 84 24 98 00 00 00 	mov    0x98(%rsp),%rax
    198a:	31 ed                	xor    %ebp,%ebp
    198c:	31 db                	xor    %ebx,%ebx
    198e:	45 31 ed             	xor    %r13d,%r13d
    1991:	c7 44 24 08 00 00 00 00 	movl   $0x0,0x8(%rsp)
    1999:	45 31 e4             	xor    %r12d,%r12d
    199c:	49 89 d8             	mov    %rbx,%r8
    199f:	48 c7 44 24 48 00 00 00 00 	movq   $0x0,0x48(%rsp)
    19a8:	48 8d 50 30          	lea    0x30(%rax),%rdx
    19ac:	48 89 e8             	mov    %rbp,%rax
    19af:	4c 89 f5             	mov    %r14,%rbp
    19b2:	48 c7 44 24 40 00 00 00 00 	movq   $0x0,0x40(%rsp)
    19bb:	49 89 c6             	mov    %rax,%r14
    19be:	48 c7 44 24 38 00 00 00 00 	movq   $0x0,0x38(%rsp)
    19c7:	48 c7 44 24 30 00 00 00 00 	movq   $0x0,0x30(%rsp)
    19d0:	48 c7 44 24 28 00 00 00 00 	movq   $0x0,0x28(%rsp)
    19d9:	4c 89 bc 24 c8 00 00 00 	mov    %r15,0xc8(%rsp)
    19e1:	49 89 d7             	mov    %rdx,%r15
    19e4:	0f 1f 40 00          	nopl   0x0(%rax)
    19e8:	48 8b 7c dd 00       	mov    0x0(%rbp,%rbx,8),%rdi
    19ed:	31 f6                	xor    %esi,%esi
    19ef:	4c 89 44 24 10       	mov    %r8,0x10(%rsp)
    19f4:	e8 37 fa ff ff       	call   1430 <pthread_join@plt>
    19f9:	41 8b 87 20 02 00 00 	mov    0x220(%r15),%eax
    1a00:	4c 8b 44 24 10       	mov    0x10(%rsp),%r8
    1a05:	49 8b 57 10          	mov    0x10(%r15),%rdx
    1a09:	49 8b 4f 28          	mov    0x28(%r15),%rcx
    1a0d:	85 c0                	test   %eax,%eax
    1a0f:	0f 44 44 24 08       	cmove  0x8(%rsp),%eax
    1a14:	49 8b 77 10          	mov    0x10(%r15),%rsi
    1a18:	89 44 24 08          	mov    %eax,0x8(%rsp)
    1a1c:	49 8b 07             	mov    (%r15),%rax
    1a1f:	49 39 c0             	cmp    %rax,%r8
    1a22:	4c 0f 42 c0          	cmovb  %rax,%r8
    1a26:	49 8b 47 08          	mov    0x8(%r15),%rax
    1a2a:	49 39 c6             	cmp    %rax,%r14
    1a2d:	4c 0f 42 f0          	cmovb  %rax,%r14
    1a31:	4d 03 67 18          	add    0x18(%r15),%r12
    1a35:	4d 03 6f 20          	add    0x20(%r15),%r13
    1a39:	48 83 c3 01          	add    $0x1,%rbx
    1a3d:	48 01 54 24 28       	add    %rdx,0x28(%rsp)
    1a42:	49 81 c7 58 02 00 00 	add    $0x258,%r15
    1a49:	49 8b 97 d8 fd ff ff 	mov    -0x228(%r15),%rdx
    1a50:	48 01 4c 24 30       	add    %rcx,0x30(%rsp)
    1a55:	49 8b 8f e0 fd ff ff 	mov    -0x220(%r15),%rcx
    1a5c:	48 01 54 24 38       	add    %rdx,0x38(%rsp)
    1a61:	49 8b 97 e8 fd ff ff 	mov    -0x218(%r15),%rdx
    1a68:	48 01 4c 24 40       	add    %rcx,0x40(%rsp)
    1a6d:	49 8b 8f c0 fd ff ff 	mov    -0x240(%r15),%rcx
    1a74:	48 01 54 24 48       	add    %rdx,0x48(%rsp)
    1a79:	49 8b 97 c8 fd ff ff 	mov    -0x238(%r15),%rdx
    1a80:	48 01 4c 24 78       	add    %rcx,0x78(%rsp)
    1a85:	48 01 94 24 80 00 00 00 	add    %rdx,0x80(%rsp)
    1a8d:	48 01 74 24 70       	add    %rsi,0x70(%rsp)
    1a92:	49 8b b7 d0 fd ff ff 	mov    -0x230(%r15),%rsi
    1a99:	49 8b 8f d8 fd ff ff 	mov    -0x228(%r15),%rcx
    1aa0:	49 8b 97 e0 fd ff ff 	mov    -0x220(%r15),%rdx
    1aa7:	48 01 b4 24 88 00 00 00 	add    %rsi,0x88(%rsp)
    1aaf:	49 8b b7 e8 fd ff ff 	mov    -0x218(%r15),%rsi
    1ab6:	48 01 4c 24 58       	add    %rcx,0x58(%rsp)
    1abb:	48 01 54 24 68       	add    %rdx,0x68(%rsp)
    1ac0:	48 01 74 24 60       	add    %rsi,0x60(%rsp)
    1ac5:	39 9c 24 24 01 00 00 	cmp    %ebx,0x124(%rsp)
    1acc:	0f 8f 16 ff ff ff    	jg     19e8 <main+0x548>
    1ad2:	4c 89 f0             	mov    %r14,%rax
    1ad5:	4c 89 c3             	mov    %r8,%rbx
    1ad8:	4c 8b bc 24 c8 00 00 00 	mov    0xc8(%rsp),%r15
    1ae0:	49 89 ee             	mov    %rbp,%r14
    1ae3:	48 89 c5             	mov    %rax,%rbp
    1ae6:	e8 b5 4c 00 00       	call   67a0 <h8_now_ns>
    1aeb:	31 ff                	xor    %edi,%edi
    1aed:	48 89 44 24 10       	mov    %rax,0x10(%rsp)
    1af2:	48 8d 84 24 e0 01 00 00 	lea    0x1e0(%rsp),%rax
    1afa:	48 89 c6             	mov    %rax,%rsi
    1afd:	48 89 84 24 c8 00 00 00 	mov    %rax,0xc8(%rsp)
    1b05:	e8 f6 f8 ff ff       	call   1400 <getrusage@plt>
    1b0a:	48 8b bc 24 a0 00 00 00 	mov    0xa0(%rsp),%rdi
    1b12:	e8 f9 f7 ff ff       	call   1310 <pthread_barrier_destroy@plt>
    1b17:	83 7c 24 08 00       	cmpl   $0x0,0x8(%rsp)
    1b1c:	0f 85 79 12 00 00    	jne    2d9b <main+0x18fb>
    1b22:	48 8b 84 24 28 01 00 00 	mov    0x128(%rsp),%rax
    1b2a:	66 0f ef d2          	pxor   %xmm2,%xmm2
    1b2e:	f2 0f 2a 94 24 24 01 00 00 	cvtsi2sdl 0x124(%rsp),%xmm2
    1b37:	48 85 c0             	test   %rax,%rax
    1b3a:	0f 88 8d 11 00 00    	js     2ccd <main+0x182d>
    1b40:	66 0f ef c0          	pxor   %xmm0,%xmm0
    1b44:	f2 48 0f 2a c0       	cvtsi2sd %rax,%xmm0
    1b49:	f2 0f 59 d0          	mulsd  %xmm0,%xmm2
    1b4d:	48 8b 44 24 10       	mov    0x10(%rsp),%rax
    1b52:	48 2b 84 24 c0 00 00 00 	sub    0xc0(%rsp),%rax
    1b5a:	0f 88 4f 11 00 00    	js     2caf <main+0x180f>
    1b60:	66 0f ef c0          	pxor   %xmm0,%xmm0
    1b64:	f2 48 0f 2a c0       	cvtsi2sd %rax,%xmm0
    1b69:	66 0f 28 ca          	movapd %xmm2,%xmm1
    1b6d:	f2 0f 5e 05 53 79 00 00 	divsd  0x7953(%rip),%xmm0        # 94c8 <_IO_stdin_used+0x14c8>
    1b75:	48 8b 84 24 b8 00 00 00 	mov    0xb8(%rsp),%rax
    1b7d:	f2 0f 11 54 24 08    	movsd  %xmm2,0x8(%rsp)
    1b83:	f2 0f 5e c8          	divsd  %xmm0,%xmm1
    1b87:	f2 42 0f 11 0c f8    	movsd  %xmm1,(%rax,%r15,8)
    1b8d:	e8 5e 4c 00 00       	call   67f0 <h8_read_memory_sample>
    1b92:	4c 8b 8c 24 20 02 00 00 	mov    0x220(%rsp),%r9
    1b9a:	4c 2b 8c 24 90 01 00 00 	sub    0x190(%rsp),%r9
    1ba2:	48 89 c1             	mov    %rax,%rcx
    1ba5:	48 8b 84 24 00 01 00 00 	mov    0x100(%rsp),%rax
    1bad:	f2 0f 10 54 24 08    	movsd  0x8(%rsp),%xmm2
    1bb3:	49 89 d0             	mov    %rdx,%r8
    1bb6:	4a 89 0c f8          	mov    %rcx,(%rax,%r15,8)
    1bba:	48 8b 84 24 08 01 00 00 	mov    0x108(%rsp),%rax
    1bc2:	4a 89 14 f8          	mov    %rdx,(%rax,%r15,8)
    1bc6:	48 8b 84 24 d8 00 00 00 	mov    0xd8(%rsp),%rax
    1bce:	4a c7 04 f8 00 00 00 00 	movq   $0x0,(%rax,%r15,8)
    1bd6:	48 8b 84 24 e8 00 00 00 	mov    0xe8(%rsp),%rax
    1bde:	4a c7 04 f8 00 00 00 00 	movq   $0x0,(%rax,%r15,8)
    1be6:	48 8b 84 24 f8 00 00 00 	mov    0xf8(%rsp),%rax
    1bee:	4a c7 04 f8 00 00 00 00 	movq   $0x0,(%rax,%r15,8)
    1bf6:	48 8b 84 24 e0 00 00 00 	mov    0xe0(%rsp),%rax
    1bfe:	4a c7 04 f8 00 00 00 00 	movq   $0x0,(%rax,%r15,8)
    1c06:	b8 00 00 00 00       	mov    $0x0,%eax
    1c0b:	4c 0f 48 c8          	cmovs  %rax,%r9
    1c0f:	48 8b 84 24 f0 00 00 00 	mov    0xf0(%rsp),%rax
    1c17:	48 85 db             	test   %rbx,%rbx
    1c1a:	4e 89 0c f8          	mov    %r9,(%rax,%r15,8)
    1c1e:	0f 88 e9 10 00 00    	js     2d0d <main+0x186d>
    1c24:	66 0f ef c9          	pxor   %xmm1,%xmm1
    1c28:	f2 48 0f 2a cb       	cvtsi2sd %rbx,%xmm1
    1c2d:	48 8b 84 24 a8 00 00 00 	mov    0xa8(%rsp),%rax
    1c35:	66 0f 28 c1          	movapd %xmm1,%xmm0
    1c39:	f2 0f 5e 05 8f 78 00 00 	divsd  0x788f(%rip),%xmm0        # 94d0 <_IO_stdin_used+0x14d0>
    1c41:	f2 42 0f 11 04 f8    	movsd  %xmm0,(%rax,%r15,8)
    1c47:	48 85 ed             	test   %rbp,%rbp
    1c4a:	0f 88 9b 10 00 00    	js     2ceb <main+0x184b>
    1c50:	66 0f ef c0          	pxor   %xmm0,%xmm0
    1c54:	f2 48 0f 2a c5       	cvtsi2sd %rbp,%xmm0
    1c59:	48 8b 84 24 b0 00 00 00 	mov    0xb0(%rsp),%rax
    1c61:	f2 0f 5e 05 67 78 00 00 	divsd  0x7867(%rip),%xmm0        # 94d0 <_IO_stdin_used+0x14d0>
    1c69:	f2 42 0f 11 04 f8    	movsd  %xmm0,(%rax,%r15,8)
    1c6f:	66 0f ef c0          	pxor   %xmm0,%xmm0
    1c73:	48 85 db             	test   %rbx,%rbx
    1c76:	74 10                	je     1c88 <main+0x7e8>
    1c78:	f2 0f 5e 0d 48 78 00 00 	divsd  0x7848(%rip),%xmm1        # 94c8 <_IO_stdin_used+0x14c8>
    1c80:	f2 0f 5e d1          	divsd  %xmm1,%xmm2
    1c84:	66 0f 28 c2          	movapd %xmm2,%xmm0
    1c88:	48 8b 84 24 d0 00 00 00 	mov    0xd0(%rsp),%rax
    1c90:	8b 9c 24 10 01 00 00 	mov    0x110(%rsp),%ebx
    1c97:	bf 01 00 00 00       	mov    $0x1,%edi
    1c9c:	48 8d 35 5d 64 00 00 	lea    0x645d(%rip),%rsi        # 8100 <_IO_stdin_used+0x100>
    1ca3:	f2 42 0f 11 04 f8    	movsd  %xmm0,(%rax,%r15,8)
    1ca9:	48 8b 84 24 b8 00 00 00 	mov    0xb8(%rsp),%rax
    1cb1:	83 c3 01             	add    $0x1,%ebx
    1cb4:	89 da                	mov    %ebx,%edx
    1cb6:	f2 42 0f 10 04 f8    	movsd  (%rax,%r15,8),%xmm0
    1cbc:	b8 01 00 00 00       	mov    $0x1,%eax
    1cc1:	e8 fa f6 ff ff       	call   13c0 <__printf_chk@plt>
    1cc6:	48 8b 84 24 a8 00 00 00 	mov    0xa8(%rsp),%rax
    1cce:	83 bc 24 44 01 00 00 00 	cmpl   $0x0,0x144(%rsp)
    1cd6:	f2 42 0f 10 04 f8    	movsd  (%rax,%r15,8),%xmm0
    1cdc:	0f 85 75 0f 00 00    	jne    2c57 <main+0x17b7>
    1ce2:	48 8b 84 24 b0 00 00 00 	mov    0xb0(%rsp),%rax
    1cea:	89 da                	mov    %ebx,%edx
    1cec:	bf 01 00 00 00       	mov    $0x1,%edi
    1cf1:	48 8d 35 48 64 00 00 	lea    0x6448(%rip),%rsi        # 8140 <_IO_stdin_used+0x140>
    1cf8:	f2 42 0f 10 0c f8    	movsd  (%rax,%r15,8),%xmm1
    1cfe:	b8 02 00 00 00       	mov    $0x2,%eax
    1d03:	e8 b8 f6 ff ff       	call   13c0 <__printf_chk@plt>
    1d08:	31 db                	xor    %ebx,%ebx
    1d0a:	83 bc 24 24 01 00 00 00 	cmpl   $0x0,0x124(%rsp)
    1d12:	48 8b 6c 24 18       	mov    0x18(%rsp),%rbp
    1d17:	7e 20                	jle    1d39 <main+0x899>
    1d19:	0f 1f 80 00 00 00 00 	nopl   0x0(%rax)
    1d20:	48 8b 7d 00          	mov    0x0(%rbp),%rdi
    1d24:	83 c3 01             	add    $0x1,%ebx
    1d27:	48 83 c5 28          	add    $0x28,%rbp
    1d2b:	e8 40 f5 ff ff       	call   1270 <free@plt>
    1d30:	39 9c 24 24 01 00 00 	cmp    %ebx,0x124(%rsp)
    1d37:	7f e7                	jg     1d20 <main+0x880>
    1d39:	48 8b 7c 24 18       	mov    0x18(%rsp),%rdi
    1d3e:	49 83 c7 01          	add    $0x1,%r15
    1d42:	e8 29 f5 ff ff       	call   1270 <free@plt>
    1d47:	48 8b bc 24 98 00 00 00 	mov    0x98(%rsp),%rdi
    1d4f:	e8 1c f5 ff ff       	call   1270 <free@plt>
    1d54:	4c 89 f7             	mov    %r14,%rdi
    1d57:	e8 14 f5 ff ff       	call   1270 <free@plt>
    1d5c:	48 8b 7c 24 20       	mov    0x20(%rsp),%rdi
    1d61:	e8 0a f5 ff ff       	call   1270 <free@plt>
    1d66:	8b 84 24 20 01 00 00 	mov    0x120(%rsp),%eax
    1d6d:	44 39 f8             	cmp    %r15d,%eax
    1d70:	0f 8f 0b fa ff ff    	jg     1781 <main+0x2e1>
    1d76:	48 8b 9c 24 b8 00 00 00 	mov    0xb8(%rsp),%rbx
    1d7e:	4c 8d 2d 0b 51 00 00 	lea    0x510b(%rip),%r13        # 6e90 <h8_cmp_double>
    1d85:	48 63 f0             	movslq %eax,%rsi
    1d88:	ba 08 00 00 00       	mov    $0x8,%edx
    1d8d:	4c 89 e9             	mov    %r13,%rcx
    1d90:	48 89 df             	mov    %rbx,%rdi
    1d93:	e8 18 f5 ff ff       	call   12b0 <qsort@plt>
    1d98:	4c 8d 25 21 51 00 00 	lea    0x5121(%rip),%r12        # 6ec0 <h8_cmp_size_t>
    1d9f:	ba 08 00 00 00       	mov    $0x8,%edx
    1da4:	4c 8b b4 24 00 01 00 00 	mov    0x100(%rsp),%r14
    1dac:	48 63 b4 24 20 01 00 00 	movslq 0x120(%rsp),%rsi
    1db4:	4c 89 e1             	mov    %r12,%rcx
    1db7:	4c 89 f7             	mov    %r14,%rdi
    1dba:	e8 f1 f4 ff ff       	call   12b0 <qsort@plt>
    1dbf:	4c 8b bc 24 08 01 00 00 	mov    0x108(%rsp),%r15
    1dc7:	4c 89 e1             	mov    %r12,%rcx
    1dca:	48 63 b4 24 20 01 00 00 	movslq 0x120(%rsp),%rsi
    1dd2:	ba 08 00 00 00       	mov    $0x8,%edx
    1dd7:	4c 89 ff             	mov    %r15,%rdi
    1dda:	e8 d1 f4 ff ff       	call   12b0 <qsort@plt>
    1ddf:	48 8b ac 24 f0 00 00 00 	mov    0xf0(%rsp),%rbp
    1de7:	4c 89 e1             	mov    %r12,%rcx
    1dea:	48 63 b4 24 20 01 00 00 	movslq 0x120(%rsp),%rsi
    1df2:	ba 08 00 00 00       	mov    $0x8,%edx
    1df7:	48 89 ef             	mov    %rbp,%rdi
    1dfa:	e8 b1 f4 ff ff       	call   12b0 <qsort@plt>
    1dff:	48 63 b4 24 20 01 00 00 	movslq 0x120(%rsp),%rsi
    1e07:	4c 89 e1             	mov    %r12,%rcx
    1e0a:	48 8b bc 24 d8 00 00 00 	mov    0xd8(%rsp),%rdi
    1e12:	ba 08 00 00 00       	mov    $0x8,%edx
    1e17:	e8 94 f4 ff ff       	call   12b0 <qsort@plt>
    1e1c:	48 63 b4 24 20 01 00 00 	movslq 0x120(%rsp),%rsi
    1e24:	4c 89 e1             	mov    %r12,%rcx
    1e27:	48 8b bc 24 e8 00 00 00 	mov    0xe8(%rsp),%rdi
    1e2f:	ba 08 00 00 00       	mov    $0x8,%edx
    1e34:	e8 77 f4 ff ff       	call   12b0 <qsort@plt>
    1e39:	48 63 b4 24 20 01 00 00 	movslq 0x120(%rsp),%rsi
    1e41:	4c 89 e1             	mov    %r12,%rcx
    1e44:	48 8b bc 24 f8 00 00 00 	mov    0xf8(%rsp),%rdi
    1e4c:	ba 08 00 00 00       	mov    $0x8,%edx
    1e51:	e8 5a f4 ff ff       	call   12b0 <qsort@plt>
    1e56:	48 63 b4 24 20 01 00 00 	movslq 0x120(%rsp),%rsi
    1e5e:	4c 89 e1             	mov    %r12,%rcx
    1e61:	48 8b bc 24 e0 00 00 00 	mov    0xe0(%rsp),%rdi
    1e69:	ba 08 00 00 00       	mov    $0x8,%edx
    1e6e:	e8 3d f4 ff ff       	call   12b0 <qsort@plt>
    1e73:	48 63 b4 24 20 01 00 00 	movslq 0x120(%rsp),%rsi
    1e7b:	4c 89 e9             	mov    %r13,%rcx
    1e7e:	48 8b bc 24 a8 00 00 00 	mov    0xa8(%rsp),%rdi
    1e86:	ba 08 00 00 00       	mov    $0x8,%edx
    1e8b:	e8 20 f4 ff ff       	call   12b0 <qsort@plt>
    1e90:	48 63 b4 24 20 01 00 00 	movslq 0x120(%rsp),%rsi
    1e98:	4c 89 e9             	mov    %r13,%rcx
    1e9b:	48 8b bc 24 b0 00 00 00 	mov    0xb0(%rsp),%rdi
    1ea3:	ba 08 00 00 00       	mov    $0x8,%edx
    1ea8:	e8 03 f4 ff ff       	call   12b0 <qsort@plt>
    1ead:	4c 89 e9             	mov    %r13,%rcx
    1eb0:	ba 08 00 00 00       	mov    $0x8,%edx
    1eb5:	4c 8b ac 24 d0 00 00 00 	mov    0xd0(%rsp),%r13
    1ebd:	48 63 b4 24 20 01 00 00 	movslq 0x120(%rsp),%rsi
    1ec5:	4c 89 ef             	mov    %r13,%rdi
    1ec8:	e8 e3 f3 ff ff       	call   12b0 <qsort@plt>
    1ecd:	48 8d 05 26 62 00 00 	lea    0x6226(%rip),%rax        # 80fa <_IO_stdin_used+0xfa>
    1ed4:	bf 01 00 00 00       	mov    $0x1,%edi
    1ed9:	48 8d 35 48 63 00 00 	lea    0x6348(%rip),%rsi        # 8228 <_IO_stdin_used+0x228>
    1ee0:	50                   	push   %rax
    1ee1:	6a 00                	push   $0x0
    1ee3:	ff b4 24 58 01 00 00 	push   0x158(%rsp)
    1eea:	8b 84 24 5c 01 00 00 	mov    0x15c(%rsp),%eax
    1ef1:	50                   	push   %rax
    1ef2:	8b 84 24 60 01 00 00 	mov    0x160(%rsp),%eax
    1ef9:	50                   	push   %rax
    1efa:	31 c0                	xor    %eax,%eax
    1efc:	ff b4 24 60 01 00 00 	push   0x160(%rsp)
    1f03:	4c 8b 8c 24 60 01 00 00 	mov    0x160(%rsp),%r9
    1f0b:	4c 8b 84 24 58 01 00 00 	mov    0x158(%rsp),%r8
    1f13:	8b 8c 24 54 01 00 00 	mov    0x154(%rsp),%ecx
    1f1a:	8b 94 24 50 01 00 00 	mov    0x150(%rsp),%edx
    1f21:	e8 9a f4 ff ff       	call   13c0 <__printf_chk@plt>
    1f26:	48 63 b4 24 50 01 00 00 	movslq 0x150(%rsp),%rsi
    1f2e:	f2 0f 10 1b          	movsd  (%rbx),%xmm3
    1f32:	48 89 df             	mov    %rbx,%rdi
    1f35:	f2 0f 10 35 9b 75 00 00 	movsd  0x759b(%rip),%xmm6        # 94d8 <_IO_stdin_used+0x14d8>
    1f3d:	f2 0f 10 64 f3 f8    	movsd  -0x8(%rbx,%rsi,8),%xmm4
    1f43:	f2 0f 11 5c 24 48    	movsd  %xmm3,0x48(%rsp)
    1f49:	66 0f 28 c6          	movapd %xmm6,%xmm0
    1f4d:	f2 0f 11 64 24 50    	movsd  %xmm4,0x50(%rsp)
    1f53:	48 83 c4 30          	add    $0x30,%rsp
    1f57:	e8 84 4f 00 00       	call   6ee0 <h8_percentile>
    1f5c:	f2 0f 10 2d 7c 75 00 00 	movsd  0x757c(%rip),%xmm5        # 94e0 <_IO_stdin_used+0x14e0>
    1f64:	48 63 b4 24 20 01 00 00 	movslq 0x120(%rsp),%rsi
    1f6c:	48 89 df             	mov    %rbx,%rdi
    1f6f:	f2 0f 11 44 24 10    	movsd  %xmm0,0x10(%rsp)
    1f75:	66 0f 28 c5          	movapd %xmm5,%xmm0
    1f79:	e8 62 4f 00 00       	call   6ee0 <h8_percentile>
    1f7e:	48 8b 05 63 75 00 00 	mov    0x7563(%rip),%rax        # 94e8 <_IO_stdin_used+0x14e8>
    1f85:	48 63 b4 24 20 01 00 00 	movslq 0x120(%rsp),%rsi
    1f8d:	48 89 df             	mov    %rbx,%rdi
    1f90:	f2 0f 11 44 24 08    	movsd  %xmm0,0x8(%rsp)
    1f96:	66 48 0f 6e c0       	movq   %rax,%xmm0
    1f9b:	e8 40 4f 00 00       	call   6ee0 <h8_percentile>
    1fa0:	f2 0f 10 64 24 20    	movsd  0x20(%rsp),%xmm4
    1fa6:	bf 01 00 00 00       	mov    $0x1,%edi
    1fab:	f2 0f 10 5c 24 18    	movsd  0x18(%rsp),%xmm3
    1fb1:	f2 0f 10 54 24 10    	movsd  0x10(%rsp),%xmm2
    1fb7:	f2 0f 10 4c 24 08    	movsd  0x8(%rsp),%xmm1
    1fbd:	b8 05 00 00 00       	mov    $0x5,%eax
    1fc2:	48 8d 35 e7 62 00 00 	lea    0x62e7(%rip),%rsi        # 82b0 <_IO_stdin_used+0x2b0>
    1fc9:	e8 f2 f3 ff ff       	call   13c0 <__printf_chk@plt>
    1fce:	48 63 b4 24 20 01 00 00 	movslq 0x120(%rsp),%rsi
    1fd6:	4d 8b 26             	mov    (%r14),%r12
    1fd9:	4c 89 f7             	mov    %r14,%rdi
    1fdc:	48 8b 05 05 75 00 00 	mov    0x7505(%rip),%rax        # 94e8 <_IO_stdin_used+0x14e8>
    1fe3:	49 8b 5c f6 f8       	mov    -0x8(%r14,%rsi,8),%rbx
    1fe8:	66 48 0f 6e c0       	movq   %rax,%xmm0
    1fed:	e8 8e 4f 00 00       	call   6f80 <h8_percentile_size_t>
    1ff2:	49 89 d8             	mov    %rbx,%r8
    1ff5:	4c 89 e1             	mov    %r12,%rcx
    1ff8:	bf 01 00 00 00       	mov    $0x1,%edi
    1ffd:	48 89 c2             	mov    %rax,%rdx
    2000:	48 8d 35 e9 62 00 00 	lea    0x62e9(%rip),%rsi        # 82f0 <_IO_stdin_used+0x2f0>
    2007:	31 c0                	xor    %eax,%eax
    2009:	e8 b2 f3 ff ff       	call   13c0 <__printf_chk@plt>
    200e:	48 63 b4 24 20 01 00 00 	movslq 0x120(%rsp),%rsi
    2016:	4d 8b 27             	mov    (%r15),%r12
    2019:	4c 89 ff             	mov    %r15,%rdi
    201c:	48 8b 05 c5 74 00 00 	mov    0x74c5(%rip),%rax        # 94e8 <_IO_stdin_used+0x14e8>
    2023:	49 8b 5c f7 f8       	mov    -0x8(%r15,%rsi,8),%rbx
    2028:	66 48 0f 6e c0       	movq   %rax,%xmm0
    202d:	e8 4e 4f 00 00       	call   6f80 <h8_percentile_size_t>
    2032:	49 89 d8             	mov    %rbx,%r8
    2035:	4c 89 e1             	mov    %r12,%rcx
    2038:	bf 01 00 00 00       	mov    $0x1,%edi
    203d:	48 89 c2             	mov    %rax,%rdx
    2040:	48 8d 35 d1 62 00 00 	lea    0x62d1(%rip),%rsi        # 8318 <_IO_stdin_used+0x318>
    2047:	31 c0                	xor    %eax,%eax
    2049:	e8 72 f3 ff ff       	call   13c0 <__printf_chk@plt>
    204e:	48 63 b4 24 20 01 00 00 	movslq 0x120(%rsp),%rsi
    2056:	4c 8b 65 00          	mov    0x0(%rbp),%r12
    205a:	48 89 ef             	mov    %rbp,%rdi
    205d:	48 8b 05 84 74 00 00 	mov    0x7484(%rip),%rax        # 94e8 <_IO_stdin_used+0x14e8>
    2064:	48 8b 5c f5 f8       	mov    -0x8(%rbp,%rsi,8),%rbx
    2069:	66 48 0f 6e c0       	movq   %rax,%xmm0
    206e:	e8 0d 4f 00 00       	call   6f80 <h8_percentile_size_t>
    2073:	49 89 d8             	mov    %rbx,%r8
    2076:	4c 89 e1             	mov    %r12,%rcx
    2079:	bf 01 00 00 00       	mov    $0x1,%edi
    207e:	48 89 c2             	mov    %rax,%rdx
    2081:	48 8d 35 d0 62 00 00 	lea    0x62d0(%rip),%rsi        # 8358 <_IO_stdin_used+0x358>
    2088:	31 c0                	xor    %eax,%eax
    208a:	e8 31 f3 ff ff       	call   13c0 <__printf_chk@plt>
    208f:	48 8b 05 42 74 00 00 	mov    0x7442(%rip),%rax        # 94d8 <_IO_stdin_used+0x14d8>
    2096:	48 63 b4 24 20 01 00 00 	movslq 0x120(%rsp),%rsi
    209e:	4c 89 ef             	mov    %r13,%rdi
    20a1:	66 48 0f 6e c0       	movq   %rax,%xmm0
    20a6:	e8 35 4e 00 00       	call   6ee0 <h8_percentile>
    20ab:	48 8b 05 2e 74 00 00 	mov    0x742e(%rip),%rax        # 94e0 <_IO_stdin_used+0x14e0>
    20b2:	48 63 b4 24 20 01 00 00 	movslq 0x120(%rsp),%rsi
    20ba:	4c 89 ef             	mov    %r13,%rdi
    20bd:	f2 0f 11 44 24 10    	movsd  %xmm0,0x10(%rsp)
    20c3:	66 48 0f 6e c0       	movq   %rax,%xmm0
    20c8:	e8 13 4e 00 00       	call   6ee0 <h8_percentile>
    20cd:	48 8b 05 14 74 00 00 	mov    0x7414(%rip),%rax        # 94e8 <_IO_stdin_used+0x14e8>
    20d4:	48 63 b4 24 20 01 00 00 	movslq 0x120(%rsp),%rsi
    20dc:	4c 89 ef             	mov    %r13,%rdi
    20df:	f2 0f 11 44 24 08    	movsd  %xmm0,0x8(%rsp)
    20e5:	66 48 0f 6e c0       	movq   %rax,%xmm0
    20ea:	e8 f1 4d 00 00       	call   6ee0 <h8_percentile>
    20ef:	f2 0f 10 54 24 10    	movsd  0x10(%rsp),%xmm2
    20f5:	f2 0f 10 4c 24 08    	movsd  0x8(%rsp),%xmm1
    20fb:	48 8d 35 96 62 00 00 	lea    0x6296(%rip),%rsi        # 8398 <_IO_stdin_used+0x398>
    2102:	bf 01 00 00 00       	mov    $0x1,%edi
    2107:	b8 03 00 00 00       	mov    $0x3,%eax
    210c:	e8 af f2 ff ff       	call   13c0 <__printf_chk@plt>
    2111:	48 8b 05 d0 73 00 00 	mov    0x73d0(%rip),%rax        # 94e8 <_IO_stdin_used+0x14e8>
    2118:	83 bc 24 44 01 00 00 00 	cmpl   $0x0,0x144(%rsp)
    2120:	48 63 b4 24 20 01 00 00 	movslq 0x120(%rsp),%rsi
    2128:	48 8b bc 24 b0 00 00 00 	mov    0xb0(%rsp),%rdi
    2130:	66 48 0f 6e c0       	movq   %rax,%xmm0
    2135:	0f 85 a7 0c 00 00    	jne    2de2 <main+0x1942>
    213b:	e8 a0 4d 00 00       	call   6ee0 <h8_percentile>
    2140:	48 8b 05 a1 73 00 00 	mov    0x73a1(%rip),%rax        # 94e8 <_IO_stdin_used+0x14e8>
    2147:	48 63 b4 24 20 01 00 00 	movslq 0x120(%rsp),%rsi
    214f:	48 8b bc 24 a8 00 00 00 	mov    0xa8(%rsp),%rdi
    2157:	f2 0f 11 44 24 08    	movsd  %xmm0,0x8(%rsp)
    215d:	66 48 0f 6e c0       	movq   %rax,%xmm0
    2162:	e8 79 4d 00 00       	call   6ee0 <h8_percentile>
    2167:	f2 0f 10 4c 24 08    	movsd  0x8(%rsp),%xmm1
    216d:	bf 01 00 00 00       	mov    $0x1,%edi
    2172:	48 8d 35 57 62 00 00 	lea    0x6257(%rip),%rsi        # 83d0 <_IO_stdin_used+0x3d0>
    2179:	b8 02 00 00 00       	mov    $0x2,%eax
    217e:	e8 3d f2 ff ff       	call   13c0 <__printf_chk@plt>
    2183:	48 8b 05 5e 73 00 00 	mov    0x735e(%rip),%rax        # 94e8 <_IO_stdin_used+0x14e8>
    218a:	48 63 b4 24 20 01 00 00 	movslq 0x120(%rsp),%rsi
    2192:	48 8b bc 24 d8 00 00 00 	mov    0xd8(%rsp),%rdi
    219a:	66 48 0f 6e c0       	movq   %rax,%xmm0
    219f:	e8 dc 4d 00 00       	call   6f80 <h8_percentile_size_t>
    21a4:	48 63 b4 24 20 01 00 00 	movslq 0x120(%rsp),%rsi
    21ac:	48 8b bc 24 e0 00 00 00 	mov    0xe0(%rsp),%rdi
    21b4:	49 89 c4             	mov    %rax,%r12
    21b7:	48 8b 05 2a 73 00 00 	mov    0x732a(%rip),%rax        # 94e8 <_IO_stdin_used+0x14e8>
    21be:	66 48 0f 6e c0       	movq   %rax,%xmm0
    21c3:	e8 b8 4d 00 00       	call   6f80 <h8_percentile_size_t>
    21c8:	4c 89 e1             	mov    %r12,%rcx
    21cb:	bf 01 00 00 00       	mov    $0x1,%edi
    21d0:	48 8d 35 29 62 00 00 	lea    0x6229(%rip),%rsi        # 8400 <_IO_stdin_used+0x400>
    21d7:	48 89 c2             	mov    %rax,%rdx
    21da:	31 c0                	xor    %eax,%eax
    21dc:	e8 df f1 ff ff       	call   13c0 <__printf_chk@plt>
    21e1:	48 8b 05 00 73 00 00 	mov    0x7300(%rip),%rax        # 94e8 <_IO_stdin_used+0x14e8>
    21e8:	48 63 b4 24 20 01 00 00 	movslq 0x120(%rsp),%rsi
    21f0:	48 8b bc 24 f8 00 00 00 	mov    0xf8(%rsp),%rdi
    21f8:	66 48 0f 6e c0       	movq   %rax,%xmm0
    21fd:	e8 7e 4d 00 00       	call   6f80 <h8_percentile_size_t>
    2202:	48 63 b4 24 20 01 00 00 	movslq 0x120(%rsp),%rsi
    220a:	48 8b bc 24 e8 00 00 00 	mov    0xe8(%rsp),%rdi
    2212:	49 89 c4             	mov    %rax,%r12
    2215:	48 8b 05 cc 72 00 00 	mov    0x72cc(%rip),%rax        # 94e8 <_IO_stdin_used+0x14e8>
    221c:	66 48 0f 6e c0       	movq   %rax,%xmm0
    2221:	e8 5a 4d 00 00       	call   6f80 <h8_percentile_size_t>
    2226:	4c 89 e1             	mov    %r12,%rcx
    2229:	bf 01 00 00 00       	mov    $0x1,%edi
    222e:	48 8d 35 0b 62 00 00 	lea    0x620b(%rip),%rsi        # 8440 <_IO_stdin_used+0x440>
    2235:	48 89 c2             	mov    %rax,%rdx
    2238:	31 c0                	xor    %eax,%eax
    223a:	e8 81 f1 ff ff       	call   13c0 <__printf_chk@plt>
    223f:	48 8d 35 02 63 00 00 	lea    0x6302(%rip),%rsi        # 8548 <_IO_stdin_used+0x548>
    2246:	bf 01 00 00 00       	mov    $0x1,%edi
    224b:	31 c0                	xor    %eax,%eax
    224d:	e8 6e f1 ff ff       	call   13c0 <__printf_chk@plt>
    2252:	48 8b bc 24 18 01 00 00 	mov    0x118(%rsp),%rdi
    225a:	e8 41 1c 00 00       	call   3ea0 <h8_stats>
    225f:	48 8b bc 24 c8 00 00 00 	mov    0xc8(%rsp),%rdi
    2267:	e8 24 1d 00 00       	call   3f90 <h8_debug_stats>
    226c:	4c 8b bc 24 50 03 00 00 	mov    0x350(%rsp),%r15
    2274:	31 c0                	xor    %eax,%eax
    2276:	4c 8b b4 24 58 03 00 00 	mov    0x358(%rsp),%r14
    227e:	48 8b ac 24 88 03 00 00 	mov    0x388(%rsp),%rbp
    2286:	4c 8b ac 24 50 04 00 00 	mov    0x450(%rsp),%r13
    228e:	48 8d 35 db 62 00 00 	lea    0x62db(%rip),%rsi        # 8570 <_IO_stdin_used+0x570>
    2295:	bf 01 00 00 00       	mov    $0x1,%edi
    229a:	4c 8b a4 24 20 06 00 00 	mov    0x620(%rsp),%r12
    22a2:	48 8b 9c 24 28 06 00 00 	mov    0x628(%rsp),%rbx
    22aa:	51                   	push   %rcx
    22ab:	ff b4 24 98 01 00 00 	push   0x198(%rsp)
    22b2:	ff b4 24 88 01 00 00 	push   0x188(%rsp)
    22b9:	ff b4 24 d0 01 00 00 	push   0x1d0(%rsp)
    22c0:	4c 8b 8c 24 d0 01 00 00 	mov    0x1d0(%rsp),%r9
    22c8:	4c 8b 84 24 c8 01 00 00 	mov    0x1c8(%rsp),%r8
    22d0:	48 8b 8c 24 c0 01 00 00 	mov    0x1c0(%rsp),%rcx
    22d8:	48 8b 94 24 b8 01 00 00 	mov    0x1b8(%rsp),%rdx
    22e0:	e8 db f0 ff ff       	call   13c0 <__printf_chk@plt>
    22e5:	48 83 c4 20          	add    $0x20,%rsp
    22e9:	bf 01 00 00 00       	mov    $0x1,%edi
    22ee:	31 c0                	xor    %eax,%eax
    22f0:	ff b4 24 60 07 00 00 	push   0x760(%rsp)
    22f7:	48 8d 35 f2 62 00 00 	lea    0x62f2(%rip),%rsi        # 85f0 <_IO_stdin_used+0x5f0>
    22fe:	ff b4 24 60 07 00 00 	push   0x760(%rsp)
    2305:	ff b4 24 60 07 00 00 	push   0x760(%rsp)
    230c:	ff b4 24 60 07 00 00 	push   0x760(%rsp)
    2313:	ff b4 24 60 07 00 00 	push   0x760(%rsp)
    231a:	ff b4 24 60 07 00 00 	push   0x760(%rsp)
    2321:	ff b4 24 60 07 00 00 	push   0x760(%rsp)
    2328:	ff b4 24 60 07 00 00 	push   0x760(%rsp)
    232f:	ff b4 24 60 07 00 00 	push   0x760(%rsp)
    2336:	ff b4 24 60 07 00 00 	push   0x760(%rsp)
    233d:	ff b4 24 60 07 00 00 	push   0x760(%rsp)
    2344:	ff b4 24 60 07 00 00 	push   0x760(%rsp)
    234b:	ff b4 24 60 07 00 00 	push   0x760(%rsp)
    2352:	ff b4 24 60 07 00 00 	push   0x760(%rsp)
    2359:	ff b4 24 60 07 00 00 	push   0x760(%rsp)
    2360:	ff b4 24 60 07 00 00 	push   0x760(%rsp)
    2367:	ff b4 24 60 07 00 00 	push   0x760(%rsp)
    236e:	ff b4 24 60 07 00 00 	push   0x760(%rsp)
    2375:	ff b4 24 60 07 00 00 	push   0x760(%rsp)
    237c:	ff b4 24 60 07 00 00 	push   0x760(%rsp)
    2383:	ff b4 24 60 07 00 00 	push   0x760(%rsp)
    238a:	ff b4 24 60 07 00 00 	push   0x760(%rsp)
    2391:	ff b4 24 60 07 00 00 	push   0x760(%rsp)
    2398:	ff b4 24 00 04 00 00 	push   0x400(%rsp)
    239f:	ff b4 24 00 04 00 00 	push   0x400(%rsp)
    23a6:	ff b4 24 00 04 00 00 	push   0x400(%rsp)
    23ad:	ff b4 24 00 04 00 00 	push   0x400(%rsp)
    23b4:	ff b4 24 00 04 00 00 	push   0x400(%rsp)
    23bb:	ff b4 24 00 04 00 00 	push   0x400(%rsp)
    23c2:	ff b4 24 00 04 00 00 	push   0x400(%rsp)
    23c9:	ff b4 24 00 04 00 00 	push   0x400(%rsp)
    23d0:	ff b4 24 b8 03 00 00 	push   0x3b8(%rsp)
    23d7:	ff b4 24 18 03 00 00 	push   0x318(%rsp)
    23de:	ff b4 24 18 03 00 00 	push   0x318(%rsp)
    23e5:	ff b4 24 18 03 00 00 	push   0x318(%rsp)
    23ec:	ff b4 24 18 03 00 00 	push   0x318(%rsp)
    23f3:	4c 8b 8c 24 18 03 00 00 	mov    0x318(%rsp),%r9
    23fb:	4c 8b 84 24 10 03 00 00 	mov    0x310(%rsp),%r8
    2403:	48 8b 8c 24 08 03 00 00 	mov    0x308(%rsp),%rcx
    240b:	48 8b 94 24 00 03 00 00 	mov    0x300(%rsp),%rdx
    2413:	e8 a8 ef ff ff       	call   13c0 <__printf_chk@plt>
    2418:	48 81 c4 18 01 00 00 	add    $0x118,%rsp
    241f:	48 8d 35 ea 64 00 00 	lea    0x64ea(%rip),%rsi        # 8910 <_IO_stdin_used+0x910>
    2426:	31 c0                	xor    %eax,%eax
    2428:	ff b4 24 88 02 00 00 	push   0x288(%rsp)
    242f:	bf 01 00 00 00       	mov    $0x1,%edi
    2434:	ff b4 24 88 02 00 00 	push   0x288(%rsp)
    243b:	ff b4 24 88 02 00 00 	push   0x288(%rsp)
    2442:	ff b4 24 88 02 00 00 	push   0x288(%rsp)
    2449:	ff b4 24 88 02 00 00 	push   0x288(%rsp)
    2450:	ff b4 24 88 02 00 00 	push   0x288(%rsp)
    2457:	ff b4 24 88 02 00 00 	push   0x288(%rsp)
    245e:	ff b4 24 88 02 00 00 	push   0x288(%rsp)
    2465:	ff b4 24 88 02 00 00 	push   0x288(%rsp)
    246c:	4c 8b 8c 24 88 02 00 00 	mov    0x288(%rsp),%r9
    2474:	4c 8b 84 24 80 02 00 00 	mov    0x280(%rsp),%r8
    247c:	48 8b 8c 24 78 02 00 00 	mov    0x278(%rsp),%rcx
    2484:	48 8b 94 24 70 02 00 00 	mov    0x270(%rsp),%rdx
    248c:	e8 2f ef ff ff       	call   13c0 <__printf_chk@plt>
    2491:	48 83 c4 48          	add    $0x48,%rsp
    2495:	bf 01 00 00 00       	mov    $0x1,%edi
    249a:	31 c0                	xor    %eax,%eax
    249c:	ff b4 24 c0 02 00 00 	push   0x2c0(%rsp)
    24a3:	48 8d 35 76 65 00 00 	lea    0x6576(%rip),%rsi        # 8a20 <_IO_stdin_used+0xa20>
    24aa:	ff b4 24 c0 02 00 00 	push   0x2c0(%rsp)
    24b1:	ff b4 24 c0 02 00 00 	push   0x2c0(%rsp)
    24b8:	4c 8b 8c 24 c0 02 00 00 	mov    0x2c0(%rsp),%r9
    24c0:	4c 8b 84 24 b8 02 00 00 	mov    0x2b8(%rsp),%r8
    24c8:	48 8b 8c 24 b0 02 00 00 	mov    0x2b0(%rsp),%rcx
    24d0:	48 8b 94 24 a8 02 00 00 	mov    0x2a8(%rsp),%rdx
    24d8:	e8 e3 ee ff ff       	call   13c0 <__printf_chk@plt>
    24dd:	48 83 c4 20          	add    $0x20,%rsp
    24e1:	4d 85 ff             	test   %r15,%r15
    24e4:	0f 84 e7 08 00 00    	je     2dd1 <main+0x1931>
    24ea:	0f 88 10 0b 00 00    	js     3000 <main+0x1b60>
    24f0:	66 0f ef d2          	pxor   %xmm2,%xmm2
    24f4:	f2 49 0f 2a d7       	cvtsi2sd %r15,%xmm2
    24f9:	48 85 ed             	test   %rbp,%rbp
    24fc:	0f 88 dd 0a 00 00    	js     2fdf <main+0x1b3f>
    2502:	66 0f ef c0          	pxor   %xmm0,%xmm0
    2506:	f2 48 0f 2a c5       	cvtsi2sd %rbp,%xmm0
    250b:	f2 0f 5e c2          	divsd  %xmm2,%xmm0
    250f:	4d 85 f6             	test   %r14,%r14
    2512:	0f 88 2a 0b 00 00    	js     3042 <main+0x1ba2>
    2518:	66 0f ef c9          	pxor   %xmm1,%xmm1
    251c:	f2 49 0f 2a ce       	cvtsi2sd %r14,%xmm1
    2521:	f2 0f 5e ca          	divsd  %xmm2,%xmm1
    2525:	f2 0f 10 15 c3 6f 00 00 	movsd  0x6fc3(%rip),%xmm2        # 94f0 <_IO_stdin_used+0x14f0>
    252d:	f2 0f 5c d1          	subsd  %xmm1,%xmm2
    2531:	4c 89 f1             	mov    %r14,%rcx
    2534:	4c 89 fa             	mov    %r15,%rdx
    2537:	bf 01 00 00 00       	mov    $0x1,%edi
    253c:	b8 03 00 00 00       	mov    $0x3,%eax
    2541:	ff b4 24 98 03 00 00 	push   0x398(%rsp)
    2548:	48 8d 35 39 65 00 00 	lea    0x6539(%rip),%rsi        # 8a88 <_IO_stdin_used+0xa88>
    254f:	ff b4 24 98 03 00 00 	push   0x398(%rsp)
    2556:	55                   	push   %rbp
    2557:	ff b4 24 98 03 00 00 	push   0x398(%rsp)
    255e:	ff b4 24 98 03 00 00 	push   0x398(%rsp)
    2565:	ff b4 24 98 03 00 00 	push   0x398(%rsp)
    256c:	4c 8b 8c 24 98 03 00 00 	mov    0x398(%rsp),%r9
    2574:	4c 8b 84 24 90 03 00 00 	mov    0x390(%rsp),%r8
    257c:	e8 3f ee ff ff       	call   13c0 <__printf_chk@plt>
    2581:	4c 8b 8c 24 e8 03 00 00 	mov    0x3e8(%rsp),%r9
    2589:	31 c0                	xor    %eax,%eax
    258b:	4c 8b 84 24 e0 03 00 00 	mov    0x3e0(%rsp),%r8
    2593:	48 83 c4 30          	add    $0x30,%rsp
    2597:	48 8b 8c 24 a8 03 00 00 	mov    0x3a8(%rsp),%rcx
    259f:	48 8b 94 24 a0 03 00 00 	mov    0x3a0(%rsp),%rdx
    25a7:	48 8d 35 a2 65 00 00 	lea    0x65a2(%rip),%rsi        # 8b50 <_IO_stdin_used+0xb50>
    25ae:	bf 01 00 00 00       	mov    $0x1,%edi
    25b3:	e8 08 ee ff ff       	call   13c0 <__printf_chk@plt>
    25b8:	4c 8b 8c 24 d8 03 00 00 	mov    0x3d8(%rsp),%r9
    25c0:	31 c0                	xor    %eax,%eax
    25c2:	4c 8b 84 24 d0 03 00 00 	mov    0x3d0(%rsp),%r8
    25ca:	48 8b 8c 24 c8 03 00 00 	mov    0x3c8(%rsp),%rcx
    25d2:	48 8b 94 24 c0 03 00 00 	mov    0x3c0(%rsp),%rdx
    25da:	bf 01 00 00 00       	mov    $0x1,%edi
    25df:	48 8d 35 fa 65 00 00 	lea    0x65fa(%rip),%rsi        # 8be0 <_IO_stdin_used+0xbe0>
    25e6:	e8 d5 ed ff ff       	call   13c0 <__printf_chk@plt>
    25eb:	4c 8b 84 24 f0 03 00 00 	mov    0x3f0(%rsp),%r8
    25f3:	31 c0                	xor    %eax,%eax
    25f5:	48 8b 8c 24 e8 03 00 00 	mov    0x3e8(%rsp),%rcx
    25fd:	48 8b 94 24 e0 03 00 00 	mov    0x3e0(%rsp),%rdx
    2605:	48 8d 35 44 66 00 00 	lea    0x6644(%rip),%rsi        # 8c50 <_IO_stdin_used+0xc50>
    260c:	bf 01 00 00 00       	mov    $0x1,%edi
    2611:	e8 aa ed ff ff       	call   13c0 <__printf_chk@plt>
    2616:	48 8b 94 24 f8 03 00 00 	mov    0x3f8(%rsp),%rdx
    261e:	bf 01 00 00 00       	mov    $0x1,%edi
    2623:	31 c0                	xor    %eax,%eax
    2625:	48 8b 8c 24 00 04 00 00 	mov    0x400(%rsp),%rcx
    262d:	48 8d 35 4c 66 00 00 	lea    0x664c(%rip),%rsi        # 8c80 <_IO_stdin_used+0xc80>
    2634:	e8 87 ed ff ff       	call   13c0 <__printf_chk@plt>
    2639:	48 8d 35 78 66 00 00 	lea    0x6678(%rip),%rsi        # 8cb8 <_IO_stdin_used+0xcb8>
    2640:	bf 01 00 00 00       	mov    $0x1,%edi
    2645:	31 c0                	xor    %eax,%eax
    2647:	52                   	push   %rdx
    2648:	ff b4 24 10 03 00 00 	push   0x310(%rsp)
    264f:	ff b4 24 10 03 00 00 	push   0x310(%rsp)
    2656:	ff b4 24 10 03 00 00 	push   0x310(%rsp)
    265d:	ff b4 24 10 03 00 00 	push   0x310(%rsp)
    2664:	ff b4 24 10 03 00 00 	push   0x310(%rsp)
    266b:	4c 8b 8c 24 10 03 00 00 	mov    0x310(%rsp),%r9
    2673:	4c 8b 84 24 08 03 00 00 	mov    0x308(%rsp),%r8
    267b:	48 8b 8c 24 00 03 00 00 	mov    0x300(%rsp),%rcx
    2683:	48 8b 94 24 f8 02 00 00 	mov    0x2f8(%rsp),%rdx
    268b:	e8 30 ed ff ff       	call   13c0 <__printf_chk@plt>
    2690:	4c 8b 8c 24 50 04 00 00 	mov    0x450(%rsp),%r9
    2698:	31 c0                	xor    %eax,%eax
    269a:	4c 8b 84 24 48 04 00 00 	mov    0x448(%rsp),%r8
    26a2:	48 83 c4 30          	add    $0x30,%rsp
    26a6:	48 8b 8c 24 10 04 00 00 	mov    0x410(%rsp),%rcx
    26ae:	48 8b 94 24 08 04 00 00 	mov    0x408(%rsp),%rdx
    26b6:	48 8d 35 cb 66 00 00 	lea    0x66cb(%rip),%rsi        # 8d88 <_IO_stdin_used+0xd88>
    26bd:	bf 01 00 00 00       	mov    $0x1,%edi
    26c2:	e8 f9 ec ff ff       	call   13c0 <__printf_chk@plt>
    26c7:	ff b4 24 e0 04 00 00 	push   0x4e0(%rsp)
    26ce:	48 8d 35 13 67 00 00 	lea    0x6713(%rip),%rsi        # 8de8 <_IO_stdin_used+0xde8>
    26d5:	31 c0                	xor    %eax,%eax
    26d7:	ff b4 24 e0 04 00 00 	push   0x4e0(%rsp)
    26de:	bf 01 00 00 00       	mov    $0x1,%edi
    26e3:	ff b4 24 e0 04 00 00 	push   0x4e0(%rsp)
    26ea:	ff b4 24 e0 04 00 00 	push   0x4e0(%rsp)
    26f1:	ff b4 24 80 04 00 00 	push   0x480(%rsp)
    26f8:	ff b4 24 80 04 00 00 	push   0x480(%rsp)
    26ff:	41 55                	push   %r13
    2701:	ff b4 24 80 04 00 00 	push   0x480(%rsp)
    2708:	48 8b 8c 24 70 04 00 00 	mov    0x470(%rsp),%rcx
    2710:	4c 8b 8c 24 80 04 00 00 	mov    0x480(%rsp),%r9
    2718:	4c 8b 84 24 78 04 00 00 	mov    0x478(%rsp),%r8
    2720:	48 8b 94 24 68 04 00 00 	mov    0x468(%rsp),%rdx
    2728:	e8 93 ec ff ff       	call   13c0 <__printf_chk@plt>
    272d:	48 8b 05 b4 6d 00 00 	mov    0x6db4(%rip),%rax        # 94e8 <_IO_stdin_used+0x14e8>
    2734:	48 83 c4 40          	add    $0x40,%rsp
    2738:	48 63 b4 24 20 01 00 00 	movslq 0x120(%rsp),%rsi
    2740:	48 8b bc 24 d8 00 00 00 	mov    0xd8(%rsp),%rdi
    2748:	66 48 0f 6e c0       	movq   %rax,%xmm0
    274d:	e8 2e 48 00 00       	call   6f80 <h8_percentile_size_t>
    2752:	8b 94 24 20 01 00 00 	mov    0x120(%rsp),%edx
    2759:	66 0f ef c0          	pxor   %xmm0,%xmm0
    275d:	48 89 c1             	mov    %rax,%rcx
    2760:	85 d2                	test   %edx,%edx
    2762:	7e 1e                	jle    2782 <main+0x12e2>
    2764:	4d 85 ed             	test   %r13,%r13
    2767:	0f 88 b4 08 00 00    	js     3021 <main+0x1b81>
    276d:	66 0f ef c0          	pxor   %xmm0,%xmm0
    2771:	f2 49 0f 2a c5       	cvtsi2sd %r13,%xmm0
    2776:	66 0f ef c9          	pxor   %xmm1,%xmm1
    277a:	f2 0f 2a ca          	cvtsi2sd %edx,%xmm1
    277e:	f2 0f 5e c1          	divsd  %xmm1,%xmm0
    2782:	4d 85 ed             	test   %r13,%r13
    2785:	74 09                	je     2790 <main+0x12f0>
    2787:	48 85 c9             	test   %rcx,%rcx
    278a:	0f 85 d3 08 00 00    	jne    3063 <main+0x1bc3>
    2790:	66 0f ef c9          	pxor   %xmm1,%xmm1
    2794:	4c 89 ea             	mov    %r13,%rdx
    2797:	bf 01 00 00 00       	mov    $0x1,%edi
    279c:	b8 02 00 00 00       	mov    $0x2,%eax
    27a1:	48 8d 35 00 67 00 00 	lea    0x6700(%rip),%rsi        # 8ea8 <_IO_stdin_used+0xea8>
    27a8:	e8 13 ec ff ff       	call   13c0 <__printf_chk@plt>
    27ad:	ff b4 24 c0 04 00 00 	push   0x4c0(%rsp)
    27b4:	48 8d 35 55 67 00 00 	lea    0x6755(%rip),%rsi        # 8f10 <_IO_stdin_used+0xf10>
    27bb:	31 c0                	xor    %eax,%eax
    27bd:	ff b4 24 c0 04 00 00 	push   0x4c0(%rsp)
    27c4:	bf 01 00 00 00       	mov    $0x1,%edi
    27c9:	ff b4 24 c0 04 00 00 	push   0x4c0(%rsp)
    27d0:	ff b4 24 c0 04 00 00 	push   0x4c0(%rsp)
    27d7:	ff b4 24 c0 04 00 00 	push   0x4c0(%rsp)
    27de:	ff b4 24 c0 04 00 00 	push   0x4c0(%rsp)
    27e5:	ff b4 24 c0 04 00 00 	push   0x4c0(%rsp)
    27ec:	ff b4 24 c0 04 00 00 	push   0x4c0(%rsp)
    27f3:	4c 8b 8c 24 c0 04 00 00 	mov    0x4c0(%rsp),%r9
    27fb:	4c 8b 84 24 b8 04 00 00 	mov    0x4b8(%rsp),%r8
    2803:	48 8b 8c 24 b0 04 00 00 	mov    0x4b0(%rsp),%rcx
    280b:	48 8b 94 24 a8 04 00 00 	mov    0x4a8(%rsp),%rdx
    2813:	e8 a8 eb ff ff       	call   13c0 <__printf_chk@plt>
    2818:	48 83 c4 38          	add    $0x38,%rsp
    281c:	bf 01 00 00 00       	mov    $0x1,%edi
    2821:	31 c0                	xor    %eax,%eax
    2823:	ff b4 24 50 05 00 00 	push   0x550(%rsp)
    282a:	48 8d 35 e7 67 00 00 	lea    0x67e7(%rip),%rsi        # 9018 <_IO_stdin_used+0x1018>
    2831:	ff b4 24 50 05 00 00 	push   0x550(%rsp)
    2838:	ff b4 24 50 05 00 00 	push   0x550(%rsp)
    283f:	ff b4 24 50 05 00 00 	push   0x550(%rsp)
    2846:	ff b4 24 50 05 00 00 	push   0x550(%rsp)
    284d:	ff b4 24 50 05 00 00 	push   0x550(%rsp)
    2854:	ff b4 24 50 05 00 00 	push   0x550(%rsp)
    285b:	ff b4 24 50 05 00 00 	push   0x550(%rsp)
    2862:	ff b4 24 50 05 00 00 	push   0x550(%rsp)
    2869:	4c 8b 8c 24 50 05 00 00 	mov    0x550(%rsp),%r9
    2871:	4c 8b 84 24 48 05 00 00 	mov    0x548(%rsp),%r8
    2879:	48 8b 8c 24 40 05 00 00 	mov    0x540(%rsp),%rcx
    2881:	48 8b 94 24 38 05 00 00 	mov    0x538(%rsp),%rdx
    2889:	e8 32 eb ff ff       	call   13c0 <__printf_chk@plt>
    288e:	48 83 c4 50          	add    $0x50,%rsp
    2892:	bf 01 00 00 00       	mov    $0x1,%edi
    2897:	31 c0                	xor    %eax,%eax
    2899:	ff b4 24 88 05 00 00 	push   0x588(%rsp)
    28a0:	48 8d 35 41 68 00 00 	lea    0x6841(%rip),%rsi        # 90e8 <_IO_stdin_used+0x10e8>
    28a7:	ff b4 24 88 05 00 00 	push   0x588(%rsp)
    28ae:	ff b4 24 88 05 00 00 	push   0x588(%rsp)
    28b5:	ff b4 24 88 05 00 00 	push   0x588(%rsp)
    28bc:	4c 8b 8c 24 88 05 00 00 	mov    0x588(%rsp),%r9
    28c4:	4c 8b 84 24 80 05 00 00 	mov    0x580(%rsp),%r8
    28cc:	48 8b 8c 24 78 05 00 00 	mov    0x578(%rsp),%rcx
    28d4:	48 8b 94 24 70 05 00 00 	mov    0x570(%rsp),%rdx
    28dc:	e8 df ea ff ff       	call   13c0 <__printf_chk@plt>
    28e1:	48 83 c4 18          	add    $0x18,%rsp
    28e5:	bf 01 00 00 00       	mov    $0x1,%edi
    28ea:	31 c0                	xor    %eax,%eax
    28ec:	ff b4 24 c8 05 00 00 	push   0x5c8(%rsp)
    28f3:	48 8d 35 86 68 00 00 	lea    0x6886(%rip),%rsi        # 9180 <_IO_stdin_used+0x1180>
    28fa:	ff b4 24 c8 05 00 00 	push   0x5c8(%rsp)
    2901:	ff b4 24 c8 05 00 00 	push   0x5c8(%rsp)
    2908:	4c 8b 8c 24 c8 05 00 00 	mov    0x5c8(%rsp),%r9
    2910:	4c 8b 84 24 c0 05 00 00 	mov    0x5c0(%rsp),%r8
    2918:	48 8b 8c 24 b8 05 00 00 	mov    0x5b8(%rsp),%rcx
    2920:	48 8b 94 24 b0 05 00 00 	mov    0x5b0(%rsp),%rdx
    2928:	e8 93 ea ff ff       	call   13c0 <__printf_chk@plt>
    292d:	48 8b 84 24 f8 05 00 00 	mov    0x5f8(%rsp),%rax
    2935:	48 83 c4 20          	add    $0x20,%rsp
    2939:	48 85 c0             	test   %rax,%rax
    293c:	0f 88 03 06 00 00    	js     2f45 <main+0x1aa5>
    2942:	66 0f ef c0          	pxor   %xmm0,%xmm0
    2946:	f2 48 0f 2a c0       	cvtsi2sd %rax,%xmm0
    294b:	48 8b 84 24 d0 05 00 00 	mov    0x5d0(%rsp),%rax
    2953:	66 0f 28 d0          	movapd %xmm0,%xmm2
    2957:	f2 0f 5e 15 71 6b 00 00 	divsd  0x6b71(%rip),%xmm2        # 94d0 <_IO_stdin_used+0x14d0>
    295f:	48 85 c0             	test   %rax,%rax
    2962:	0f 88 bf 05 00 00    	js     2f27 <main+0x1a87>
    2968:	66 0f ef c0          	pxor   %xmm0,%xmm0
    296c:	f2 48 0f 2a c0       	cvtsi2sd %rax,%xmm0
    2971:	48 8b 84 24 c8 05 00 00 	mov    0x5c8(%rsp),%rax
    2979:	66 0f 28 c8          	movapd %xmm0,%xmm1
    297d:	f2 0f 5e 0d 4b 6b 00 00 	divsd  0x6b4b(%rip),%xmm1        # 94d0 <_IO_stdin_used+0x14d0>
    2985:	48 85 c0             	test   %rax,%rax
    2988:	0f 88 7b 05 00 00    	js     2f09 <main+0x1a69>
    298e:	66 0f ef c0          	pxor   %xmm0,%xmm0
    2992:	f2 48 0f 2a c0       	cvtsi2sd %rax,%xmm0
    2997:	48 8d 35 7a 68 00 00 	lea    0x687a(%rip),%rsi        # 9218 <_IO_stdin_used+0x1218>
    299e:	bf 01 00 00 00       	mov    $0x1,%edi
    29a3:	b8 03 00 00 00       	mov    $0x3,%eax
    29a8:	f2 0f 5e 05 20 6b 00 00 	divsd  0x6b20(%rip),%xmm0        # 94d0 <_IO_stdin_used+0x14d0>
    29b0:	e8 0b ea ff ff       	call   13c0 <__printf_chk@plt>
    29b5:	48 8b 84 24 18 06 00 00 	mov    0x618(%rsp),%rax
    29bd:	48 85 c0             	test   %rax,%rax
    29c0:	0f 88 25 05 00 00    	js     2eeb <main+0x1a4b>
    29c6:	66 0f ef f6          	pxor   %xmm6,%xmm6
    29ca:	f2 48 0f 2a f0       	cvtsi2sd %rax,%xmm6
    29cf:	48 8b 84 24 10 06 00 00 	mov    0x610(%rsp),%rax
    29d7:	f2 0f 5e 35 f1 6a 00 00 	divsd  0x6af1(%rip),%xmm6        # 94d0 <_IO_stdin_used+0x14d0>
    29df:	48 85 c0             	test   %rax,%rax
    29e2:	0f 88 e5 04 00 00    	js     2ecd <main+0x1a2d>
    29e8:	66 0f ef ed          	pxor   %xmm5,%xmm5
    29ec:	f2 48 0f 2a e8       	cvtsi2sd %rax,%xmm5
    29f1:	48 8b 84 24 08 06 00 00 	mov    0x608(%rsp),%rax
    29f9:	f2 0f 5e 2d cf 6a 00 00 	divsd  0x6acf(%rip),%xmm5        # 94d0 <_IO_stdin_used+0x14d0>
    2a01:	48 85 c0             	test   %rax,%rax
    2a04:	0f 88 a5 04 00 00    	js     2eaf <main+0x1a0f>
    2a0a:	66 0f ef e4          	pxor   %xmm4,%xmm4
    2a0e:	f2 48 0f 2a e0       	cvtsi2sd %rax,%xmm4
    2a13:	48 8b 84 24 00 06 00 00 	mov    0x600(%rsp),%rax
    2a1b:	f2 0f 5e 25 ad 6a 00 00 	divsd  0x6aad(%rip),%xmm4        # 94d0 <_IO_stdin_used+0x14d0>
    2a23:	48 85 c0             	test   %rax,%rax
    2a26:	0f 88 65 04 00 00    	js     2e91 <main+0x19f1>
    2a2c:	66 0f ef c0          	pxor   %xmm0,%xmm0
    2a30:	f2 48 0f 2a c0       	cvtsi2sd %rax,%xmm0
    2a35:	48 8b 84 24 f0 05 00 00 	mov    0x5f0(%rsp),%rax
    2a3d:	66 0f 28 d8          	movapd %xmm0,%xmm3
    2a41:	48 8b 94 24 f8 05 00 00 	mov    0x5f8(%rsp),%rdx
    2a49:	f2 0f 5e 1d 7f 6a 00 00 	divsd  0x6a7f(%rip),%xmm3        # 94d0 <_IO_stdin_used+0x14d0>
    2a51:	48 85 c0             	test   %rax,%rax
    2a54:	0f 88 19 04 00 00    	js     2e73 <main+0x19d3>
    2a5a:	66 0f ef c0          	pxor   %xmm0,%xmm0
    2a5e:	f2 48 0f 2a c0       	cvtsi2sd %rax,%xmm0
    2a63:	48 8b 84 24 e8 05 00 00 	mov    0x5e8(%rsp),%rax
    2a6b:	66 0f 28 d0          	movapd %xmm0,%xmm2
    2a6f:	f2 0f 5e 15 59 6a 00 00 	divsd  0x6a59(%rip),%xmm2        # 94d0 <_IO_stdin_used+0x14d0>
    2a77:	48 85 c0             	test   %rax,%rax
    2a7a:	0f 88 1f 05 00 00    	js     2f9f <main+0x1aff>
    2a80:	66 0f ef c0          	pxor   %xmm0,%xmm0
    2a84:	f2 48 0f 2a c0       	cvtsi2sd %rax,%xmm0
    2a89:	48 8b 84 24 e0 05 00 00 	mov    0x5e0(%rsp),%rax
    2a91:	66 0f 28 c8          	movapd %xmm0,%xmm1
    2a95:	f2 0f 5e 0d 33 6a 00 00 	divsd  0x6a33(%rip),%xmm1        # 94d0 <_IO_stdin_used+0x14d0>
    2a9d:	48 85 c0             	test   %rax,%rax
    2aa0:	0f 88 db 04 00 00    	js     2f81 <main+0x1ae1>
    2aa6:	66 0f ef c0          	pxor   %xmm0,%xmm0
    2aaa:	f2 48 0f 2a c0       	cvtsi2sd %rax,%xmm0
    2aaf:	48 8d 35 a2 67 00 00 	lea    0x67a2(%rip),%rsi        # 9258 <_IO_stdin_used+0x1258>
    2ab6:	bf 01 00 00 00       	mov    $0x1,%edi
    2abb:	b8 07 00 00 00       	mov    $0x7,%eax
    2ac0:	f2 0f 5e 05 08 6a 00 00 	divsd  0x6a08(%rip),%xmm0        # 94d0 <_IO_stdin_used+0x14d0>
    2ac8:	e8 f3 e8 ff ff       	call   13c0 <__printf_chk@plt>
    2acd:	66 0f ef c0          	pxor   %xmm0,%xmm0
    2ad1:	4d 85 e4             	test   %r12,%r12
    2ad4:	74 28                	je     2afe <main+0x165e>
    2ad6:	48 85 db             	test   %rbx,%rbx
    2ad9:	0f 88 bd 05 00 00    	js     309c <main+0x1bfc>
    2adf:	66 0f ef c0          	pxor   %xmm0,%xmm0
    2ae3:	f2 48 0f 2a c3       	cvtsi2sd %rbx,%xmm0
    2ae8:	4d 85 e4             	test   %r12,%r12
    2aeb:	0f 88 8a 05 00 00    	js     307b <main+0x1bdb>
    2af1:	66 0f ef c9          	pxor   %xmm1,%xmm1
    2af5:	f2 49 0f 2a cc       	cvtsi2sd %r12,%xmm1
    2afa:	f2 0f 5e c1          	divsd  %xmm1,%xmm0
    2afe:	48 8b 84 24 50 06 00 00 	mov    0x650(%rsp),%rax
    2b06:	48 85 c0             	test   %rax,%rax
    2b09:	0f 88 54 04 00 00    	js     2f63 <main+0x1ac3>
    2b0f:	66 0f ef c9          	pxor   %xmm1,%xmm1
    2b13:	f2 48 0f 2a c8       	cvtsi2sd %rax,%xmm1
    2b18:	48 89 d9             	mov    %rbx,%rcx
    2b1b:	4c 89 e2             	mov    %r12,%rdx
    2b1e:	bf 01 00 00 00       	mov    $0x1,%edi
    2b23:	b8 02 00 00 00       	mov    $0x2,%eax
    2b28:	ff b4 24 48 06 00 00 	push   0x648(%rsp)
    2b2f:	48 8d 35 12 68 00 00 	lea    0x6812(%rip),%rsi        # 9348 <_IO_stdin_used+0x1348>
    2b36:	f2 0f 5e 0d 92 69 00 00 	divsd  0x6992(%rip),%xmm1        # 94d0 <_IO_stdin_used+0x14d0>
    2b3e:	ff b4 24 48 06 00 00 	push   0x648(%rsp)
    2b45:	4c 8b 8c 24 48 06 00 00 	mov    0x648(%rsp),%r9
    2b4d:	4c 8b 84 24 40 06 00 00 	mov    0x640(%rsp),%r8
    2b55:	e8 66 e8 ff ff       	call   13c0 <__printf_chk@plt>
    2b5a:	58                   	pop    %rax
    2b5b:	bf 01 00 00 00       	mov    $0x1,%edi
    2b60:	31 c0                	xor    %eax,%eax
    2b62:	ff b4 24 b0 06 00 00 	push   0x6b0(%rsp)
    2b69:	48 8d 35 68 68 00 00 	lea    0x6868(%rip),%rsi        # 93d8 <_IO_stdin_used+0x13d8>
    2b70:	ff b4 24 b0 06 00 00 	push   0x6b0(%rsp)
    2b77:	ff b4 24 b0 06 00 00 	push   0x6b0(%rsp)
    2b7e:	ff b4 24 b0 06 00 00 	push   0x6b0(%rsp)
    2b85:	ff b4 24 b0 06 00 00 	push   0x6b0(%rsp)
    2b8c:	ff b4 24 b0 06 00 00 	push   0x6b0(%rsp)
    2b93:	ff b4 24 b0 06 00 00 	push   0x6b0(%rsp)
    2b9a:	4c 8b 8c 24 b0 06 00 00 	mov    0x6b0(%rsp),%r9
    2ba2:	4c 8b 84 24 a8 06 00 00 	mov    0x6a8(%rsp),%r8
    2baa:	48 8b 8c 24 a0 06 00 00 	mov    0x6a0(%rsp),%rcx
    2bb2:	48 8b 94 24 98 06 00 00 	mov    0x698(%rsp),%rdx
    2bba:	e8 01 e8 ff ff       	call   13c0 <__printf_chk@plt>
    2bbf:	48 8b bc 24 f8 00 00 00 	mov    0xf8(%rsp),%rdi
    2bc7:	48 83 c4 40          	add    $0x40,%rsp
    2bcb:	e8 a0 e6 ff ff       	call   1270 <free@plt>
    2bd0:	48 8b bc 24 00 01 00 00 	mov    0x100(%rsp),%rdi
    2bd8:	e8 93 e6 ff ff       	call   1270 <free@plt>
    2bdd:	48 8b bc 24 08 01 00 00 	mov    0x108(%rsp),%rdi
    2be5:	e8 86 e6 ff ff       	call   1270 <free@plt>
    2bea:	48 8b bc 24 a8 00 00 00 	mov    0xa8(%rsp),%rdi
    2bf2:	e8 79 e6 ff ff       	call   1270 <free@plt>
    2bf7:	48 8b bc 24 b0 00 00 00 	mov    0xb0(%rsp),%rdi
    2bff:	e8 6c e6 ff ff       	call   1270 <free@plt>
    2c04:	48 8b bc 24 d0 00 00 00 	mov    0xd0(%rsp),%rdi
    2c0c:	e8 5f e6 ff ff       	call   1270 <free@plt>
    2c11:	48 8b bc 24 f0 00 00 00 	mov    0xf0(%rsp),%rdi
    2c19:	e8 52 e6 ff ff       	call   1270 <free@plt>
    2c1e:	48 8b bc 24 d8 00 00 00 	mov    0xd8(%rsp),%rdi
    2c26:	e8 45 e6 ff ff       	call   1270 <free@plt>
    2c2b:	48 8b bc 24 e0 00 00 00 	mov    0xe0(%rsp),%rdi
    2c33:	e8 38 e6 ff ff       	call   1270 <free@plt>
    2c38:	48 8b bc 24 e8 00 00 00 	mov    0xe8(%rsp),%rdi
    2c40:	e8 2b e6 ff ff       	call   1270 <free@plt>
    2c45:	48 8b bc 24 f8 00 00 00 	mov    0xf8(%rsp),%rdi
    2c4d:	e8 1e e6 ff ff       	call   1270 <free@plt>
    2c52:	e9 39 e9 ff ff       	jmp    1590 <main+0xf0>
    2c57:	ff 74 24 48          	push   0x48(%rsp)
    2c5b:	4d 89 e9             	mov    %r13,%r9
    2c5e:	4d 89 e0             	mov    %r12,%r8
    2c61:	89 da                	mov    %ebx,%edx
    2c63:	ff 74 24 48          	push   0x48(%rsp)
    2c67:	48 8d 35 02 55 00 00 	lea    0x5502(%rip),%rsi        # 8170 <_IO_stdin_used+0x170>
    2c6e:	bf 01 00 00 00       	mov    $0x1,%edi
    2c73:	ff 74 24 48          	push   0x48(%rsp)
    2c77:	ff 74 24 48          	push   0x48(%rsp)
    2c7b:	48 8b 84 24 d0 00 00 00 	mov    0xd0(%rsp),%rax
    2c83:	48 8b 4c 24 48       	mov    0x48(%rsp),%rcx
    2c88:	f2 42 0f 10 14 f8    	movsd  (%rax,%r15,8),%xmm2
    2c8e:	48 8b 84 24 f0 00 00 00 	mov    0xf0(%rsp),%rax
    2c96:	f2 42 0f 10 0c f8    	movsd  (%rax,%r15,8),%xmm1
    2c9c:	b8 03 00 00 00       	mov    $0x3,%eax
    2ca1:	e8 1a e7 ff ff       	call   13c0 <__printf_chk@plt>
    2ca6:	48 83 c4 20          	add    $0x20,%rsp
    2caa:	e9 59 f0 ff ff       	jmp    1d08 <main+0x868>
    2caf:	48 89 c2             	mov    %rax,%rdx
    2cb2:	83 e0 01             	and    $0x1,%eax
    2cb5:	66 0f ef c0          	pxor   %xmm0,%xmm0
    2cb9:	48 d1 ea             	shr    %rdx
    2cbc:	48 09 c2             	or     %rax,%rdx
    2cbf:	f2 48 0f 2a c2       	cvtsi2sd %rdx,%xmm0
    2cc4:	f2 0f 58 c0          	addsd  %xmm0,%xmm0
    2cc8:	e9 9c ee ff ff       	jmp    1b69 <main+0x6c9>
    2ccd:	48 89 c2             	mov    %rax,%rdx
    2cd0:	83 e0 01             	and    $0x1,%eax
    2cd3:	66 0f ef c0          	pxor   %xmm0,%xmm0
    2cd7:	48 d1 ea             	shr    %rdx
    2cda:	48 09 c2             	or     %rax,%rdx
    2cdd:	f2 48 0f 2a c2       	cvtsi2sd %rdx,%xmm0
    2ce2:	f2 0f 58 c0          	addsd  %xmm0,%xmm0
    2ce6:	e9 5e ee ff ff       	jmp    1b49 <main+0x6a9>
    2ceb:	48 89 e8             	mov    %rbp,%rax
    2cee:	49 89 eb             	mov    %rbp,%r11
    2cf1:	66 0f ef c0          	pxor   %xmm0,%xmm0
    2cf5:	48 d1 e8             	shr    %rax
    2cf8:	41 83 e3 01          	and    $0x1,%r11d
    2cfc:	4c 09 d8             	or     %r11,%rax
    2cff:	f2 48 0f 2a c0       	cvtsi2sd %rax,%xmm0
    2d04:	f2 0f 58 c0          	addsd  %xmm0,%xmm0
    2d08:	e9 4c ef ff ff       	jmp    1c59 <main+0x7b9>
    2d0d:	48 89 d8             	mov    %rbx,%rax
    2d10:	48 89 da             	mov    %rbx,%rdx
    2d13:	66 0f ef c9          	pxor   %xmm1,%xmm1
    2d17:	48 d1 e8             	shr    %rax
    2d1a:	83 e2 01             	and    $0x1,%edx
    2d1d:	48 09 d0             	or     %rdx,%rax
    2d20:	f2 48 0f 2a c8       	cvtsi2sd %rax,%xmm1
    2d25:	f2 0f 58 c9          	addsd  %xmm1,%xmm1
    2d29:	e9 ff ee ff ff       	jmp    1c2d <main+0x78d>
    2d2e:	e8 6d 3a 00 00       	call   67a0 <h8_now_ns>
    2d33:	31 ff                	xor    %edi,%edi
    2d35:	45 31 e4             	xor    %r12d,%r12d
    2d38:	45 31 ed             	xor    %r13d,%r13d
    2d3b:	48 89 44 24 10       	mov    %rax,0x10(%rsp)
    2d40:	48 8d 84 24 e0 01 00 00 	lea    0x1e0(%rsp),%rax
    2d48:	31 ed                	xor    %ebp,%ebp
    2d4a:	31 db                	xor    %ebx,%ebx
    2d4c:	48 89 c6             	mov    %rax,%rsi
    2d4f:	48 89 84 24 c8 00 00 00 	mov    %rax,0xc8(%rsp)
    2d57:	e8 a4 e6 ff ff       	call   1400 <getrusage@plt>
    2d5c:	48 8b bc 24 a0 00 00 00 	mov    0xa0(%rsp),%rdi
    2d64:	e8 a7 e5 ff ff       	call   1310 <pthread_barrier_destroy@plt>
    2d69:	48 c7 44 24 28 00 00 00 00 	movq   $0x0,0x28(%rsp)
    2d72:	48 c7 44 24 30 00 00 00 00 	movq   $0x0,0x30(%rsp)
    2d7b:	48 c7 44 24 38 00 00 00 00 	movq   $0x0,0x38(%rsp)
    2d84:	48 c7 44 24 40 00 00 00 00 	movq   $0x0,0x40(%rsp)
    2d8d:	48 c7 44 24 48 00 00 00 00 	movq   $0x0,0x48(%rsp)
    2d96:	e9 87 ed ff ff       	jmp    1b22 <main+0x682>
    2d9b:	48 8b 05 56 92 00 00 	mov    0x9256(%rip),%rax        # bff8 <stderr@GLIBC_2.2.5>
    2da2:	44 8b 44 24 08       	mov    0x8(%rsp),%r8d
    2da7:	48 8d 15 33 53 00 00 	lea    0x5333(%rip),%rdx        # 80e1 <_IO_stdin_used+0xe1>
    2dae:	be 01 00 00 00       	mov    $0x1,%esi
    2db3:	8b 8c 24 14 01 00 00 	mov    0x114(%rsp),%ecx
    2dba:	48 8b 38             	mov    (%rax),%rdi
    2dbd:	31 c0                	xor    %eax,%eax
    2dbf:	e8 5c e6 ff ff       	call   1420 <__fprintf_chk@plt>
    2dc4:	c7 44 24 54 01 00 00 00 	movl   $0x1,0x54(%rsp)
    2dcc:	e9 bf e7 ff ff       	jmp    1590 <main+0xf0>
    2dd1:	66 0f ef d2          	pxor   %xmm2,%xmm2
    2dd5:	66 0f 28 ca          	movapd %xmm2,%xmm1
    2dd9:	66 0f 28 c2          	movapd %xmm2,%xmm0
    2ddd:	e9 4f f7 ff ff       	jmp    2531 <main+0x1091>
    2de2:	e8 f9 40 00 00       	call   6ee0 <h8_percentile>
    2de7:	48 8b 05 fa 66 00 00 	mov    0x66fa(%rip),%rax        # 94e8 <_IO_stdin_used+0x14e8>
    2dee:	48 63 b4 24 20 01 00 00 	movslq 0x120(%rsp),%rsi
    2df6:	48 8b bc 24 a8 00 00 00 	mov    0xa8(%rsp),%rdi
    2dfe:	f2 0f 11 44 24 08    	movsd  %xmm0,0x8(%rsp)
    2e04:	66 48 0f 6e c0       	movq   %rax,%xmm0
    2e09:	e8 d2 40 00 00       	call   6ee0 <h8_percentile>
    2e0e:	f2 0f 10 4c 24 08    	movsd  0x8(%rsp),%xmm1
    2e14:	bf 01 00 00 00       	mov    $0x1,%edi
    2e19:	48 8d 35 68 56 00 00 	lea    0x5668(%rip),%rsi        # 8488 <_IO_stdin_used+0x488>
    2e20:	b8 02 00 00 00       	mov    $0x2,%eax
    2e25:	e8 96 e5 ff ff       	call   13c0 <__printf_chk@plt>
    2e2a:	bf 01 00 00 00       	mov    $0x1,%edi
    2e2f:	31 c0                	xor    %eax,%eax
    2e31:	56                   	push   %rsi
    2e32:	48 8d 35 87 56 00 00 	lea    0x5687(%rip),%rsi        # 84c0 <_IO_stdin_used+0x4c0>
    2e39:	ff 74 24 68          	push   0x68(%rsp)
    2e3d:	ff 74 24 78          	push   0x78(%rsp)
    2e41:	ff 74 24 70          	push   0x70(%rsp)
    2e45:	4c 8b 8c 24 a8 00 00 00 	mov    0xa8(%rsp),%r9
    2e4d:	4c 8b 84 24 a0 00 00 00 	mov    0xa0(%rsp),%r8
    2e55:	48 8b 8c 24 98 00 00 00 	mov    0x98(%rsp),%rcx
    2e5d:	48 8b 94 24 90 00 00 00 	mov    0x90(%rsp),%rdx
    2e65:	e8 56 e5 ff ff       	call   13c0 <__printf_chk@plt>
    2e6a:	48 83 c4 20          	add    $0x20,%rsp
    2e6e:	e9 cc f3 ff ff       	jmp    223f <main+0xd9f>
    2e73:	48 89 c1             	mov    %rax,%rcx
    2e76:	83 e0 01             	and    $0x1,%eax
    2e79:	66 0f ef c0          	pxor   %xmm0,%xmm0
    2e7d:	48 d1 e9             	shr    %rcx
    2e80:	48 09 c1             	or     %rax,%rcx
    2e83:	f2 48 0f 2a c1       	cvtsi2sd %rcx,%xmm0
    2e88:	f2 0f 58 c0          	addsd  %xmm0,%xmm0
    2e8c:	e9 d2 fb ff ff       	jmp    2a63 <main+0x15c3>
    2e91:	48 89 c2             	mov    %rax,%rdx
    2e94:	83 e0 01             	and    $0x1,%eax
    2e97:	66 0f ef c0          	pxor   %xmm0,%xmm0
    2e9b:	48 d1 ea             	shr    %rdx
    2e9e:	48 09 c2             	or     %rax,%rdx
    2ea1:	f2 48 0f 2a c2       	cvtsi2sd %rdx,%xmm0
    2ea6:	f2 0f 58 c0          	addsd  %xmm0,%xmm0
    2eaa:	e9 86 fb ff ff       	jmp    2a35 <main+0x1595>
    2eaf:	48 89 c2             	mov    %rax,%rdx
    2eb2:	83 e0 01             	and    $0x1,%eax
    2eb5:	66 0f ef e4          	pxor   %xmm4,%xmm4
    2eb9:	48 d1 ea             	shr    %rdx
    2ebc:	48 09 c2             	or     %rax,%rdx
    2ebf:	f2 48 0f 2a e2       	cvtsi2sd %rdx,%xmm4
    2ec4:	f2 0f 58 e4          	addsd  %xmm4,%xmm4
    2ec8:	e9 46 fb ff ff       	jmp    2a13 <main+0x1573>
    2ecd:	48 89 c2             	mov    %rax,%rdx
    2ed0:	83 e0 01             	and    $0x1,%eax
    2ed3:	66 0f ef ed          	pxor   %xmm5,%xmm5
    2ed7:	48 d1 ea             	shr    %rdx
    2eda:	48 09 c2             	or     %rax,%rdx
    2edd:	f2 48 0f 2a ea       	cvtsi2sd %rdx,%xmm5
    2ee2:	f2 0f 58 ed          	addsd  %xmm5,%xmm5
    2ee6:	e9 06 fb ff ff       	jmp    29f1 <main+0x1551>
    2eeb:	48 89 c2             	mov    %rax,%rdx
    2eee:	83 e0 01             	and    $0x1,%eax
    2ef1:	66 0f ef f6          	pxor   %xmm6,%xmm6
    2ef5:	48 d1 ea             	shr    %rdx
    2ef8:	48 09 c2             	or     %rax,%rdx
    2efb:	f2 48 0f 2a f2       	cvtsi2sd %rdx,%xmm6
    2f00:	f2 0f 58 f6          	addsd  %xmm6,%xmm6
    2f04:	e9 c6 fa ff ff       	jmp    29cf <main+0x152f>
    2f09:	48 89 c2             	mov    %rax,%rdx
    2f0c:	83 e0 01             	and    $0x1,%eax
    2f0f:	66 0f ef c0          	pxor   %xmm0,%xmm0
    2f13:	48 d1 ea             	shr    %rdx
    2f16:	48 09 c2             	or     %rax,%rdx
    2f19:	f2 48 0f 2a c2       	cvtsi2sd %rdx,%xmm0
    2f1e:	f2 0f 58 c0          	addsd  %xmm0,%xmm0
    2f22:	e9 70 fa ff ff       	jmp    2997 <main+0x14f7>
    2f27:	48 89 c2             	mov    %rax,%rdx
    2f2a:	83 e0 01             	and    $0x1,%eax
    2f2d:	66 0f ef c0          	pxor   %xmm0,%xmm0
    2f31:	48 d1 ea             	shr    %rdx
    2f34:	48 09 c2             	or     %rax,%rdx
    2f37:	f2 48 0f 2a c2       	cvtsi2sd %rdx,%xmm0
    2f3c:	f2 0f 58 c0          	addsd  %xmm0,%xmm0
    2f40:	e9 2c fa ff ff       	jmp    2971 <main+0x14d1>
    2f45:	48 89 c2             	mov    %rax,%rdx
    2f48:	83 e0 01             	and    $0x1,%eax
    2f4b:	66 0f ef c0          	pxor   %xmm0,%xmm0
    2f4f:	48 d1 ea             	shr    %rdx
    2f52:	48 09 c2             	or     %rax,%rdx
    2f55:	f2 48 0f 2a c2       	cvtsi2sd %rdx,%xmm0
    2f5a:	f2 0f 58 c0          	addsd  %xmm0,%xmm0
    2f5e:	e9 e8 f9 ff ff       	jmp    294b <main+0x14ab>
    2f63:	48 89 c2             	mov    %rax,%rdx
    2f66:	83 e0 01             	and    $0x1,%eax
    2f69:	66 0f ef c9          	pxor   %xmm1,%xmm1
    2f6d:	48 d1 ea             	shr    %rdx
    2f70:	48 09 c2             	or     %rax,%rdx
    2f73:	f2 48 0f 2a ca       	cvtsi2sd %rdx,%xmm1
    2f78:	f2 0f 58 c9          	addsd  %xmm1,%xmm1
    2f7c:	e9 97 fb ff ff       	jmp    2b18 <main+0x1678>
    2f81:	48 89 c1             	mov    %rax,%rcx
    2f84:	83 e0 01             	and    $0x1,%eax
    2f87:	66 0f ef c0          	pxor   %xmm0,%xmm0
    2f8b:	48 d1 e9             	shr    %rcx
    2f8e:	48 09 c1             	or     %rax,%rcx
    2f91:	f2 48 0f 2a c1       	cvtsi2sd %rcx,%xmm0
    2f96:	f2 0f 58 c0          	addsd  %xmm0,%xmm0
    2f9a:	e9 10 fb ff ff       	jmp    2aaf <main+0x160f>
    2f9f:	48 89 c1             	mov    %rax,%rcx
    2fa2:	83 e0 01             	and    $0x1,%eax
    2fa5:	66 0f ef c0          	pxor   %xmm0,%xmm0
    2fa9:	48 d1 e9             	shr    %rcx
    2fac:	48 09 c1             	or     %rax,%rcx
    2faf:	f2 48 0f 2a c1       	cvtsi2sd %rcx,%xmm0
    2fb4:	f2 0f 58 c0          	addsd  %xmm0,%xmm0
    2fb8:	e9 cc fa ff ff       	jmp    2a89 <main+0x15e9>
    2fbd:	48 8b 05 34 90 00 00 	mov    0x9034(%rip),%rax        # bff8 <stderr@GLIBC_2.2.5>
    2fc4:	48 8d 15 fd 50 00 00 	lea    0x50fd(%rip),%rdx        # 80c8 <_IO_stdin_used+0xc8>
    2fcb:	be 01 00 00 00       	mov    $0x1,%esi
    2fd0:	48 8b 38             	mov    (%rax),%rdi
    2fd3:	31 c0                	xor    %eax,%eax
    2fd5:	e8 46 e4 ff ff       	call   1420 <__fprintf_chk@plt>
    2fda:	e9 e5 fd ff ff       	jmp    2dc4 <main+0x1924>
    2fdf:	48 89 e8             	mov    %rbp,%rax
    2fe2:	48 89 ea             	mov    %rbp,%rdx
    2fe5:	66 0f ef c0          	pxor   %xmm0,%xmm0
    2fe9:	48 d1 e8             	shr    %rax
    2fec:	83 e2 01             	and    $0x1,%edx
    2fef:	48 09 d0             	or     %rdx,%rax
    2ff2:	f2 48 0f 2a c0       	cvtsi2sd %rax,%xmm0
    2ff7:	f2 0f 58 c0          	addsd  %xmm0,%xmm0
    2ffb:	e9 0b f5 ff ff       	jmp    250b <main+0x106b>
    3000:	4c 89 f8             	mov    %r15,%rax
    3003:	4c 89 fa             	mov    %r15,%rdx
    3006:	66 0f ef d2          	pxor   %xmm2,%xmm2
    300a:	48 d1 e8             	shr    %rax
    300d:	83 e2 01             	and    $0x1,%edx
    3010:	48 09 d0             	or     %rdx,%rax
    3013:	f2 48 0f 2a d0       	cvtsi2sd %rax,%xmm2
    3018:	f2 0f 58 d2          	addsd  %xmm2,%xmm2
    301c:	e9 d8 f4 ff ff       	jmp    24f9 <main+0x1059>
    3021:	4c 89 e8             	mov    %r13,%rax
    3024:	4c 89 ee             	mov    %r13,%rsi
    3027:	66 0f ef c0          	pxor   %xmm0,%xmm0
    302b:	48 d1 e8             	shr    %rax
    302e:	83 e6 01             	and    $0x1,%esi
    3031:	48 09 f0             	or     %rsi,%rax
    3034:	f2 48 0f 2a c0       	cvtsi2sd %rax,%xmm0
    3039:	f2 0f 58 c0          	addsd  %xmm0,%xmm0
    303d:	e9 34 f7 ff ff       	jmp    2776 <main+0x12d6>
    3042:	4c 89 f0             	mov    %r14,%rax
    3045:	4c 89 f2             	mov    %r14,%rdx
    3048:	66 0f ef c9          	pxor   %xmm1,%xmm1
    304c:	48 d1 e8             	shr    %rax
    304f:	83 e2 01             	and    $0x1,%edx
    3052:	48 09 d0             	or     %rdx,%rax
    3055:	f2 48 0f 2a c8       	cvtsi2sd %rax,%xmm1
    305a:	f2 0f 58 c9          	addsd  %xmm1,%xmm1
    305e:	e9 be f4 ff ff       	jmp    2521 <main+0x1081>
    3063:	78 5d                	js     30c2 <main+0x1c22>
    3065:	66 0f ef d2          	pxor   %xmm2,%xmm2
    3069:	f2 48 0f 2a d1       	cvtsi2sd %rcx,%xmm2
    306e:	66 0f 28 c8          	movapd %xmm0,%xmm1
    3072:	f2 0f 5e ca          	divsd  %xmm2,%xmm1
    3076:	e9 19 f7 ff ff       	jmp    2794 <main+0x12f4>
    307b:	4c 89 e0             	mov    %r12,%rax
    307e:	4c 89 e2             	mov    %r12,%rdx
    3081:	66 0f ef c9          	pxor   %xmm1,%xmm1
    3085:	48 d1 e8             	shr    %rax
    3088:	83 e2 01             	and    $0x1,%edx
    308b:	48 09 d0             	or     %rdx,%rax
    308e:	f2 48 0f 2a c8       	cvtsi2sd %rax,%xmm1
    3093:	f2 0f 58 c9          	addsd  %xmm1,%xmm1
    3097:	e9 5e fa ff ff       	jmp    2afa <main+0x165a>
    309c:	48 89 d8             	mov    %rbx,%rax
    309f:	48 89 da             	mov    %rbx,%rdx
    30a2:	66 0f ef c0          	pxor   %xmm0,%xmm0
    30a6:	48 d1 e8             	shr    %rax
    30a9:	83 e2 01             	and    $0x1,%edx
    30ac:	48 09 d0             	or     %rdx,%rax
    30af:	f2 48 0f 2a c0       	cvtsi2sd %rax,%xmm0
    30b4:	f2 0f 58 c0          	addsd  %xmm0,%xmm0
    30b8:	e9 2b fa ff ff       	jmp    2ae8 <main+0x1648>
    30bd:	e8 2e e2 ff ff       	call   12f0 <__stack_chk_fail@plt>
    30c2:	48 89 c8             	mov    %rcx,%rax
    30c5:	48 89 ca             	mov    %rcx,%rdx
    30c8:	66 0f ef d2          	pxor   %xmm2,%xmm2
    30cc:	48 d1 e8             	shr    %rax
    30cf:	83 e2 01             	and    $0x1,%edx
    30d2:	48 09 d0             	or     %rdx,%rax
    30d5:	f2 48 0f 2a d0       	cvtsi2sd %rax,%xmm2
    30da:	f2 0f 58 d2          	addsd  %xmm2,%xmm2
    30de:	eb 8e                	jmp    306e <main+0x1bce>
    30e0:	48 8b 05 11 8f 00 00 	mov    0x8f11(%rip),%rax        # bff8 <stderr@GLIBC_2.2.5>
    30e7:	48 8d 15 bd 4f 00 00 	lea    0x4fbd(%rip),%rdx        # 80ab <_IO_stdin_used+0xab>
    30ee:	be 01 00 00 00       	mov    $0x1,%esi
    30f3:	48 8b 38             	mov    (%rax),%rdi
    30f6:	31 c0                	xor    %eax,%eax
    30f8:	e8 23 e3 ff ff       	call   1420 <__fprintf_chk@plt>
    30fd:	48 8b 7c 24 18       	mov    0x18(%rsp),%rdi
    3102:	e8 69 e1 ff ff       	call   1270 <free@plt>
    3107:	48 8b bc 24 98 00 00 00 	mov    0x98(%rsp),%rdi
    310f:	e8 5c e1 ff ff       	call   1270 <free@plt>
    3114:	4c 89 f7             	mov    %r14,%rdi
    3117:	e8 54 e1 ff ff       	call   1270 <free@plt>
    311c:	48 8b 7c 24 20       	mov    0x20(%rsp),%rdi
    3121:	e8 4a e1 ff ff       	call   1270 <free@plt>
    3126:	48 8b bc 24 b8 00 00 00 	mov    0xb8(%rsp),%rdi
    312e:	e8 3d e1 ff ff       	call   1270 <free@plt>
    3133:	48 8b bc 24 00 01 00 00 	mov    0x100(%rsp),%rdi
    313b:	e8 30 e1 ff ff       	call   1270 <free@plt>
    3140:	48 8b bc 24 08 01 00 00 	mov    0x108(%rsp),%rdi
    3148:	e8 23 e1 ff ff       	call   1270 <free@plt>
    314d:	48 8b bc 24 a8 00 00 00 	mov    0xa8(%rsp),%rdi
    3155:	e8 16 e1 ff ff       	call   1270 <free@plt>
    315a:	48 8b bc 24 b0 00 00 00 	mov    0xb0(%rsp),%rdi
    3162:	e8 09 e1 ff ff       	call   1270 <free@plt>
    3167:	48 8b bc 24 f0 00 00 00 	mov    0xf0(%rsp),%rdi
    316f:	e8 fc e0 ff ff       	call   1270 <free@plt>
    3174:	48 8b bc 24 d8 00 00 00 	mov    0xd8(%rsp),%rdi
    317c:	e8 ef e0 ff ff       	call   1270 <free@plt>
    3181:	48 8b bc 24 e0 00 00 00 	mov    0xe0(%rsp),%rdi
    3189:	e8 e2 e0 ff ff       	call   1270 <free@plt>
    318e:	48 8b bc 24 e8 00 00 00 	mov    0xe8(%rsp),%rdi
    3196:	e8 d5 e0 ff ff       	call   1270 <free@plt>
    319b:	48 8b bc 24 f8 00 00 00 	mov    0xf8(%rsp),%rdi
    31a3:	e8 c8 e0 ff ff       	call   1270 <free@plt>
    31a8:	e9 17 fc ff ff       	jmp    2dc4 <main+0x1924>
    31ad:	48 8b 05 44 8e 00 00 	mov    0x8e44(%rip),%rax        # bff8 <stderr@GLIBC_2.2.5>
    31b4:	48 8d 15 d7 4e 00 00 	lea    0x4ed7(%rip),%rdx        # 8092 <_IO_stdin_used+0x92>
    31bb:	be 01 00 00 00       	mov    $0x1,%esi
    31c0:	48 8b 38             	mov    (%rax),%rdi
    31c3:	31 c0                	xor    %eax,%eax
    31c5:	e8 56 e2 ff ff       	call   1420 <__fprintf_chk@plt>
    31ca:	48 8b bc 24 b8 00 00 00 	mov    0xb8(%rsp),%rdi
    31d2:	e8 99 e0 ff ff       	call   1270 <free@plt>
    31d7:	48 8b bc 24 00 01 00 00 	mov    0x100(%rsp),%rdi
    31df:	e8 8c e0 ff ff       	call   1270 <free@plt>
    31e4:	48 8b bc 24 08 01 00 00 	mov    0x108(%rsp),%rdi
    31ec:	e8 7f e0 ff ff       	call   1270 <free@plt>
    31f1:	48 8b bc 24 a8 00 00 00 	mov    0xa8(%rsp),%rdi
    31f9:	e8 72 e0 ff ff       	call   1270 <free@plt>
    31fe:	48 8b bc 24 b0 00 00 00 	mov    0xb0(%rsp),%rdi
    3206:	e8 65 e0 ff ff       	call   1270 <free@plt>
    320b:	48 8b bc 24 d0 00 00 00 	mov    0xd0(%rsp),%rdi
    3213:	e8 58 e0 ff ff       	call   1270 <free@plt>
    3218:	48 8b bc 24 f0 00 00 00 	mov    0xf0(%rsp),%rdi
    3220:	e8 4b e0 ff ff       	call   1270 <free@plt>
    3225:	48 8b bc 24 d8 00 00 00 	mov    0xd8(%rsp),%rdi
    322d:	e8 3e e0 ff ff       	call   1270 <free@plt>
    3232:	48 8b bc 24 e0 00 00 00 	mov    0xe0(%rsp),%rdi
    323a:	e8 31 e0 ff ff       	call   1270 <free@plt>
    323f:	48 8b bc 24 e8 00 00 00 	mov    0xe8(%rsp),%rdi
    3247:	e8 24 e0 ff ff       	call   1270 <free@plt>
    324c:	48 8b bc 24 f8 00 00 00 	mov    0xf8(%rsp),%rdi
    3254:	e8 17 e0 ff ff       	call   1270 <free@plt>
    3259:	c7 44 24 54 01 00 00 00 	movl   $0x1,0x54(%rsp)
    3261:	e9 2a e3 ff ff       	jmp    1590 <main+0xf0>
    3266:	66 2e 0f 1f 84 00 00 00 00 00 	cs nopw 0x0(%rax,%rax,1)

0000000000003270 <_start>:
    3270:	f3 0f 1e fa          	endbr64 
    3274:	31 ed                	xor    %ebp,%ebp
    3276:	49 89 d1             	mov    %rdx,%r9
    3279:	5e                   	pop    %rsi
    327a:	48 89 e2             	mov    %rsp,%rdx
    327d:	48 83 e4 f0          	and    $0xfffffffffffffff0,%rsp
    3281:	50                   	push   %rax
    3282:	54                   	push   %rsp
    3283:	45 31 c0             	xor    %r8d,%r8d
    3286:	31 c9                	xor    %ecx,%ecx
    3288:	48 8d 3d 11 e2 ff ff 	lea    -0x1def(%rip),%rdi        # 14a0 <main>
    328f:	ff 15 3b 8d 00 00    	call   *0x8d3b(%rip)        # bfd0 <__libc_start_main@GLIBC_2.34>
    3295:	f4                   	hlt    
    3296:	66 2e 0f 1f 84 00 00 00 00 00 	cs nopw 0x0(%rax,%rax,1)

00000000000032a0 <deregister_tm_clones>:
    32a0:	48 8d 3d 69 8d 00 00 	lea    0x8d69(%rip),%rdi        # c010 <__TMC_END__>
    32a7:	48 8d 05 62 8d 00 00 	lea    0x8d62(%rip),%rax        # c010 <__TMC_END__>
    32ae:	48 39 f8             	cmp    %rdi,%rax
    32b1:	74 15                	je     32c8 <deregister_tm_clones+0x28>
    32b3:	48 8b 05 1e 8d 00 00 	mov    0x8d1e(%rip),%rax        # bfd8 <_ITM_deregisterTMCloneTable@Base>
    32ba:	48 85 c0             	test   %rax,%rax
    32bd:	74 09                	je     32c8 <deregister_tm_clones+0x28>
    32bf:	ff e0                	jmp    *%rax
    32c1:	0f 1f 80 00 00 00 00 	nopl   0x0(%rax)
    32c8:	c3                   	ret    
    32c9:	0f 1f 80 00 00 00 00 	nopl   0x0(%rax)

00000000000032d0 <register_tm_clones>:
    32d0:	48 8d 3d 39 8d 00 00 	lea    0x8d39(%rip),%rdi        # c010 <__TMC_END__>
    32d7:	48 8d 35 32 8d 00 00 	lea    0x8d32(%rip),%rsi        # c010 <__TMC_END__>
    32de:	48 29 fe             	sub    %rdi,%rsi
    32e1:	48 89 f0             	mov    %rsi,%rax
    32e4:	48 c1 ee 3f          	shr    $0x3f,%rsi
    32e8:	48 c1 f8 03          	sar    $0x3,%rax
    32ec:	48 01 c6             	add    %rax,%rsi
    32ef:	48 d1 fe             	sar    %rsi
    32f2:	74 14                	je     3308 <register_tm_clones+0x38>
    32f4:	48 8b 05 ed 8c 00 00 	mov    0x8ced(%rip),%rax        # bfe8 <_ITM_registerTMCloneTable@Base>
    32fb:	48 85 c0             	test   %rax,%rax
    32fe:	74 08                	je     3308 <register_tm_clones+0x38>
    3300:	ff e0                	jmp    *%rax
    3302:	66 0f 1f 44 00 00    	nopw   0x0(%rax,%rax,1)
    3308:	c3                   	ret    
    3309:	0f 1f 80 00 00 00 00 	nopl   0x0(%rax)

0000000000003310 <__do_global_dtors_aux>:
    3310:	f3 0f 1e fa          	endbr64 
    3314:	80 3d 05 8d 00 00 00 	cmpb   $0x0,0x8d05(%rip)        # c020 <completed.0>
    331b:	75 2b                	jne    3348 <__do_global_dtors_aux+0x38>
    331d:	55                   	push   %rbp
    331e:	48 83 3d ca 8c 00 00 00 	cmpq   $0x0,0x8cca(%rip)        # bff0 <__cxa_finalize@GLIBC_2.2.5>
    3326:	48 89 e5             	mov    %rsp,%rbp
    3329:	74 0c                	je     3337 <__do_global_dtors_aux+0x27>
    332b:	48 8b 3d d6 8c 00 00 	mov    0x8cd6(%rip),%rdi        # c008 <__dso_handle>
    3332:	e8 19 df ff ff       	call   1250 <__cxa_finalize@plt>
    3337:	e8 64 ff ff ff       	call   32a0 <deregister_tm_clones>
    333c:	c6 05 dd 8c 00 00 01 	movb   $0x1,0x8cdd(%rip)        # c020 <completed.0>
    3343:	5d                   	pop    %rbp
    3344:	c3                   	ret    
    3345:	0f 1f 00             	nopl   (%rax)
    3348:	c3                   	ret    
    3349:	0f 1f 80 00 00 00 00 	nopl   0x0(%rax)

0000000000003350 <frame_dummy>:
    3350:	f3 0f 1e fa          	endbr64 
    3354:	e9 77 ff ff ff       	jmp    32d0 <register_tm_clones>
    3359:	0f 1f 80 00 00 00 00 	nopl   0x0(%rax)

0000000000003360 <h8_span_commit_for_class>:
    3360:	f3 0f 1e fa          	endbr64 
    3364:	41 57                	push   %r15
    3366:	41 56                	push   %r14
    3368:	41 89 f6             	mov    %esi,%r14d
    336b:	41 55                	push   %r13
    336d:	41 54                	push   %r12
    336f:	55                   	push   %rbp
    3370:	48 89 fd             	mov    %rdi,%rbp
    3373:	53                   	push   %rbx
    3374:	48 83 ec 18          	sub    $0x18,%rsp
    3378:	e8 d3 07 00 00       	call   3b50 <h8_init>
    337d:	48 8b 9d d0 00 00 00 	mov    0xd0(%rbp),%rbx
    3384:	48 3b 9d d8 00 00 00 	cmp    0xd8(%rbp),%rbx
    338b:	0f 83 57 01 00 00    	jae    34e8 <h8_span_commit_for_class+0x188>
    3391:	4c 8d 2d e8 8c 00 00 	lea    0x8ce8(%rip),%r13        # c080 <h8g>
    3398:	48 8d 43 01          	lea    0x1(%rbx),%rax
    339c:	48 89 85 d0 00 00 00 	mov    %rax,0xd0(%rbp)
    33a3:	49 8b 45 20          	mov    0x20(%r13),%rax
    33a7:	48 39 d8             	cmp    %rbx,%rax
    33aa:	0f 86 74 01 00 00    	jbe    3524 <h8_span_commit_for_class+0x1c4>
    33b0:	41 bf 00 10 00 00    	mov    $0x1000,%r15d
    33b6:	44 89 f1             	mov    %r14d,%ecx
    33b9:	bf 01 00 00 00       	mov    $0x1,%edi
    33be:	49 d3 ef             	shr    %cl,%r15
    33c1:	49 8d 47 3f          	lea    0x3f(%r15),%rax
    33c5:	48 c1 e8 06          	shr    $0x6,%rax
    33c9:	48 8d 14 c5 c0 00 00 00 	lea    0xc0(,%rax,8),%rdx
    33d1:	4a 8d 74 ba 47       	lea    0x47(%rdx,%r15,4),%rsi
    33d6:	48 89 54 24 08       	mov    %rdx,0x8(%rsp)
    33db:	e8 70 2d 00 00       	call   6150 <h8_sys_calloc>
    33e0:	48 85 c0             	test   %rax,%rax
    33e3:	0f 84 3b 01 00 00    	je     3524 <h8_span_commit_for_class+0x1c4>
    33e9:	4c 8d 60 47          	lea    0x47(%rax),%r12
    33ed:	49 83 e4 c0          	and    $0xffffffffffffffc0,%r12
    33f1:	0f 84 2d 01 00 00    	je     3524 <h8_span_commit_for_class+0x1c4>
    33f7:	48 8b 54 24 08       	mov    0x8(%rsp),%rdx
    33fc:	8b 4d 0c             	mov    0xc(%rbp),%ecx
    33ff:	49 89 44 24 28       	mov    %rax,0x28(%r12)
    3404:	49 8d 84 24 c0 00 00 00 	lea    0xc0(%r12),%rax
    340c:	49 89 44 24 18       	mov    %rax,0x18(%r12)
    3411:	48 89 d8             	mov    %rbx,%rax
    3414:	4c 01 e2             	add    %r12,%rdx
    3417:	48 c1 e0 10          	shl    $0x10,%rax
    341b:	49 03 45 10          	add    0x10(%r13),%rax
    341f:	41 c6 44 24 30 01    	movb   $0x1,0x30(%r12)
    3425:	49 89 54 24 20       	mov    %rdx,0x20(%r12)
    342a:	8b 55 08             	mov    0x8(%rbp),%edx
    342d:	49 89 04 24          	mov    %rax,(%r12)
    3431:	0f b7 c1             	movzwl %cx,%eax
    3434:	0f b6 f2             	movzbl %dl,%esi
    3437:	48 c1 e0 06          	shl    $0x6,%rax
    343b:	81 e2 ff 00 00 00    	and    $0xff,%edx
    3441:	66 45 89 74 24 08    	mov    %r14w,0x8(%r12)
    3447:	48 09 f0             	or     %rsi,%rax
    344a:	66 45 89 7c 24 0a    	mov    %r15w,0xa(%r12)
    3450:	48 0d 00 00 00 02    	or     $0x2000000,%rax
    3456:	49 89 44 24 40       	mov    %rax,0x40(%r12)
    345b:	41 89 54 24 48       	mov    %edx,0x48(%r12)
    3460:	66 41 89 4c 24 4c    	mov    %cx,0x4c(%r12)
    3466:	41 c6 44 24 4e 00    	movb   $0x0,0x4e(%r12)
    346c:	41 c7 44 24 68 01 00 00 00 	movl   $0x1,0x68(%r12)
    3475:	41 c6 44 24 4f 00    	movb   $0x0,0x4f(%r12)
    347b:	66 41 c7 44 24 50 00 00 	movw   $0x0,0x50(%r12)
    3483:	41 c6 44 24 52 00    	movb   $0x0,0x52(%r12)
    3489:	49 c7 44 24 58 00 00 00 00 	movq   $0x0,0x58(%r12)
    3492:	49 c7 44 24 60 00 00 00 00 	movq   $0x0,0x60(%r12)
    349b:	41 c7 84 24 80 00 00 00 00 00 00 00 	movl   $0x0,0x80(%r12)
    34a7:	41 c7 84 24 84 00 00 00 ff ff ff 3f 	movl   $0x3fffffff,0x84(%r12)
    34b3:	f0 49 81 45 28 00 00 01 00 	lock addq $0x10000,0x28(%r13)
    34bc:	49 8b 45 38          	mov    0x38(%r13),%rax
    34c0:	4c 89 24 d8          	mov    %r12,(%rax,%rbx,8)
    34c4:	4c 89 e6             	mov    %r12,%rsi
    34c7:	48 89 ef             	mov    %rbp,%rdi
    34ca:	e8 61 19 00 00       	call   4e30 <h8_owner_add_owned_span>
    34cf:	48 83 c4 18          	add    $0x18,%rsp
    34d3:	4c 89 e0             	mov    %r12,%rax
    34d6:	5b                   	pop    %rbx
    34d7:	5d                   	pop    %rbp
    34d8:	41 5c                	pop    %r12
    34da:	41 5d                	pop    %r13
    34dc:	41 5e                	pop    %r14
    34de:	41 5f                	pop    %r15
    34e0:	c3                   	ret    
    34e1:	0f 1f 80 00 00 00 00 	nopl   0x0(%rax)
    34e8:	4c 8d 2d 91 8b 00 00 	lea    0x8b91(%rip),%r13        # c080 <h8g>
    34ef:	bb 20 00 00 00       	mov    $0x20,%ebx
    34f4:	f0 49 0f c1 5d 30    	lock xadd %rbx,0x30(%r13)
    34fa:	49 8b 45 20          	mov    0x20(%r13),%rax
    34fe:	48 8d 53 01          	lea    0x1(%rbx),%rdx
    3502:	48 89 95 d0 00 00 00 	mov    %rdx,0xd0(%rbp)
    3509:	48 8d 53 20          	lea    0x20(%rbx),%rdx
    350d:	48 39 c2             	cmp    %rax,%rdx
    3510:	48 0f 47 d0          	cmova  %rax,%rdx
    3514:	48 89 95 d8 00 00 00 	mov    %rdx,0xd8(%rbp)
    351b:	48 39 d8             	cmp    %rbx,%rax
    351e:	0f 87 8c fe ff ff    	ja     33b0 <h8_span_commit_for_class+0x50>
    3524:	45 31 e4             	xor    %r12d,%r12d
    3527:	eb a6                	jmp    34cf <h8_span_commit_for_class+0x16f>
    3529:	0f 1f 80 00 00 00 00 	nopl   0x0(%rax)

0000000000003530 <h8_span_retire_logical>:
    3530:	f3 0f 1e fa          	endbr64 
    3534:	48 85 ff             	test   %rdi,%rdi
    3537:	0f 84 b3 00 00 00    	je     35f0 <h8_span_retire_logical+0xc0>
    353d:	55                   	push   %rbp
    353e:	53                   	push   %rbx
    353f:	48 89 fb             	mov    %rdi,%rbx
    3542:	48 83 ec 08          	sub    $0x8,%rsp
    3546:	0f b6 47 4e          	movzbl 0x4e(%rdi),%eax
    354a:	3c 05                	cmp    $0x5,%al
    354c:	0f 84 8e 00 00 00    	je     35e0 <h8_span_retire_logical+0xb0>
    3552:	48 8d 2d e7 8a 00 00 	lea    0x8ae7(%rip),%rbp        # c040 <h8_span_table_lock>
    3559:	48 89 ef             	mov    %rbp,%rdi
    355c:	e8 ff de ff ff       	call   1460 <pthread_mutex_lock@plt>
    3561:	48 8d 0d 18 8b 00 00 	lea    0x8b18(%rip),%rcx        # c080 <h8g>
    3568:	48 8b 03             	mov    (%rbx),%rax
    356b:	48 2b 41 10          	sub    0x10(%rcx),%rax
    356f:	0f b6 53 4e          	movzbl 0x4e(%rbx),%edx
    3573:	48 c1 e8 10          	shr    $0x10,%rax
    3577:	80 fa 05             	cmp    $0x5,%dl
    357a:	74 5c                	je     35d8 <h8_span_retire_logical+0xa8>
    357c:	48 ba ff ff 3f fe ff ff ff 01 	movabs $0x1fffffffe3fffff,%rdx
    3586:	c6 43 4e 05          	movb   $0x5,0x4e(%rbx)
    358a:	48 8b 73 40          	mov    0x40(%rbx),%rsi
    358e:	48 21 f2             	and    %rsi,%rdx
    3591:	48 81 ca 00 00 40 01 	or     $0x1400000,%rdx
    3598:	48 89 53 40          	mov    %rdx,0x40(%rbx)
    359c:	48 39 41 20          	cmp    %rax,0x20(%rcx)
    35a0:	77 16                	ja     35b8 <h8_span_retire_logical+0x88>
    35a2:	48 89 ef             	mov    %rbp,%rdi
    35a5:	e8 e6 dd ff ff       	call   1390 <pthread_mutex_unlock@plt>
    35aa:	48 83 c4 08          	add    $0x8,%rsp
    35ae:	48 89 d8             	mov    %rbx,%rax
    35b1:	5b                   	pop    %rbx
    35b2:	5d                   	pop    %rbp
    35b3:	c3                   	ret    
    35b4:	0f 1f 40 00          	nopl   0x0(%rax)
    35b8:	48 8b 51 38          	mov    0x38(%rcx),%rdx
    35bc:	48 8b 14 c2          	mov    (%rdx,%rax,8),%rdx
    35c0:	48 39 d3             	cmp    %rdx,%rbx
    35c3:	75 dd                	jne    35a2 <h8_span_retire_logical+0x72>
    35c5:	48 8b 51 38          	mov    0x38(%rcx),%rdx
    35c9:	48 c7 04 c2 00 00 00 00 	movq   $0x0,(%rdx,%rax,8)
    35d1:	eb cf                	jmp    35a2 <h8_span_retire_logical+0x72>
    35d3:	0f 1f 44 00 00       	nopl   0x0(%rax,%rax,1)
    35d8:	48 89 ef             	mov    %rbp,%rdi
    35db:	e8 b0 dd ff ff       	call   1390 <pthread_mutex_unlock@plt>
    35e0:	48 83 c4 08          	add    $0x8,%rsp
    35e4:	31 c0                	xor    %eax,%eax
    35e6:	5b                   	pop    %rbx
    35e7:	5d                   	pop    %rbp
    35e8:	c3                   	ret    
    35e9:	0f 1f 80 00 00 00 00 	nopl   0x0(%rax)
    35f0:	31 c0                	xor    %eax,%eax
    35f2:	c3                   	ret    
    35f3:	66 66 2e 0f 1f 84 00 00 00 00 00 	data16 cs nopw 0x0(%rax,%rax,1)
    35fe:	66 90                	xchg   %ax,%ax

0000000000003600 <h8_span_purge_retired_batch>:
    3600:	f3 0f 1e fa          	endbr64 
    3604:	48 85 ff             	test   %rdi,%rdi
    3607:	0f 84 73 01 00 00    	je     3780 <h8_span_purge_retired_batch+0x180>
    360d:	41 57                	push   %r15
    360f:	41 56                	push   %r14
    3611:	41 55                	push   %r13
    3613:	41 bd 01 00 00 00    	mov    $0x1,%r13d
    3619:	41 54                	push   %r12
    361b:	55                   	push   %rbp
    361c:	53                   	push   %rbx
    361d:	48 89 fb             	mov    %rdi,%rbx
    3620:	48 83 ec 08          	sub    $0x8,%rsp
    3624:	48 8b af 88 00 00 00 	mov    0x88(%rdi),%rbp
    362b:	4c 8b 27             	mov    (%rdi),%r12
    362e:	e9 89 00 00 00       	jmp    36bc <h8_span_purge_retired_batch+0xbc>
    3633:	0f 1f 44 00 00       	nopl   0x0(%rax,%rax,1)
    3638:	48 8b 7b 28          	mov    0x28(%rbx),%rdi
    363c:	48 85 ff             	test   %rdi,%rdi
    363f:	48 0f 44 fb          	cmove  %rbx,%rdi
    3643:	e8 18 2b 00 00       	call   6160 <h8_sys_free>
    3648:	48 85 ed             	test   %rbp,%rbp
    364b:	0f 84 ef 00 00 00    	je     3740 <h8_span_purge_retired_batch+0x140>
    3651:	4c 8b b5 88 00 00 00 	mov    0x88(%rbp),%r14
    3658:	48 8b 5d 00          	mov    0x0(%rbp),%rbx
    365c:	4d 85 e4             	test   %r12,%r12
    365f:	0f 84 cb 00 00 00    	je     3730 <h8_span_purge_retired_batch+0x130>
    3665:	48 8d 83 00 00 01 00 	lea    0x10000(%rbx),%rax
    366c:	49 39 c4             	cmp    %rax,%r12
    366f:	0f 84 ab 00 00 00    	je     3720 <h8_span_purge_retired_batch+0x120>
    3675:	4d 89 ef             	mov    %r13,%r15
    3678:	49 83 c5 01          	add    $0x1,%r13
    367c:	49 c1 e7 10          	shl    $0x10,%r15
    3680:	4b 8d 04 3c          	lea    (%r12,%r15,1),%rax
    3684:	48 39 c3             	cmp    %rax,%rbx
    3687:	74 2d                	je     36b6 <h8_span_purge_retired_batch+0xb6>
    3689:	ba 04 00 00 00       	mov    $0x4,%edx
    368e:	4c 89 fe             	mov    %r15,%rsi
    3691:	4c 89 e7             	mov    %r12,%rdi
    3694:	e8 47 dd ff ff       	call   13e0 <madvise@plt>
    3699:	85 c0                	test   %eax,%eax
    369b:	0f 85 e0 00 00 00    	jne    3781 <h8_span_purge_retired_batch+0x181>
    36a1:	48 8d 05 d8 89 00 00 	lea    0x89d8(%rip),%rax        # c080 <h8g>
    36a8:	f0 4c 29 78 28       	lock sub %r15,0x28(%rax)
    36ad:	41 bd 01 00 00 00    	mov    $0x1,%r13d
    36b3:	49 89 dc             	mov    %rbx,%r12
    36b6:	48 89 eb             	mov    %rbp,%rbx
    36b9:	4c 89 f5             	mov    %r14,%rbp
    36bc:	48 c7 83 88 00 00 00 00 00 00 00 	movq   $0x0,0x88(%rbx)
    36c7:	80 7b 30 00          	cmpb   $0x0,0x30(%rbx)
    36cb:	48 c7 83 90 00 00 00 00 00 00 00 	movq   $0x0,0x90(%rbx)
    36d6:	48 c7 83 a0 00 00 00 00 00 00 00 	movq   $0x0,0xa0(%rbx)
    36e1:	48 c7 83 a8 00 00 00 00 00 00 00 	movq   $0x0,0xa8(%rbx)
    36ec:	48 c7 83 98 00 00 00 00 00 00 00 	movq   $0x0,0x98(%rbx)
    36f7:	0f 85 3b ff ff ff    	jne    3638 <h8_span_purge_retired_batch+0x38>
    36fd:	48 8b 7b 10          	mov    0x10(%rbx),%rdi
    3701:	e8 5a 2a 00 00       	call   6160 <h8_sys_free>
    3706:	48 8b 7b 18          	mov    0x18(%rbx),%rdi
    370a:	e8 51 2a 00 00       	call   6160 <h8_sys_free>
    370f:	48 8b 7b 20          	mov    0x20(%rbx),%rdi
    3713:	e8 48 2a 00 00       	call   6160 <h8_sys_free>
    3718:	e9 1b ff ff ff       	jmp    3638 <h8_span_purge_retired_batch+0x38>
    371d:	0f 1f 00             	nopl   (%rax)
    3720:	49 83 c5 01          	add    $0x1,%r13
    3724:	49 89 dc             	mov    %rbx,%r12
    3727:	eb 8d                	jmp    36b6 <h8_span_purge_retired_batch+0xb6>
    3729:	0f 1f 80 00 00 00 00 	nopl   0x0(%rax)
    3730:	49 89 dc             	mov    %rbx,%r12
    3733:	41 bd 01 00 00 00    	mov    $0x1,%r13d
    3739:	e9 78 ff ff ff       	jmp    36b6 <h8_span_purge_retired_batch+0xb6>
    373e:	66 90                	xchg   %ax,%ax
    3740:	4d 85 e4             	test   %r12,%r12
    3743:	74 24                	je     3769 <h8_span_purge_retired_batch+0x169>
    3745:	49 c1 e5 10          	shl    $0x10,%r13
    3749:	ba 04 00 00 00       	mov    $0x4,%edx
    374e:	4c 89 e7             	mov    %r12,%rdi
    3751:	4c 89 ee             	mov    %r13,%rsi
    3754:	e8 87 dc ff ff       	call   13e0 <madvise@plt>
    3759:	85 c0                	test   %eax,%eax
    375b:	75 24                	jne    3781 <h8_span_purge_retired_batch+0x181>
    375d:	48 8d 05 1c 89 00 00 	lea    0x891c(%rip),%rax        # c080 <h8g>
    3764:	f0 4c 29 68 28       	lock sub %r13,0x28(%rax)
    3769:	48 83 c4 08          	add    $0x8,%rsp
    376d:	5b                   	pop    %rbx
    376e:	5d                   	pop    %rbp
    376f:	41 5c                	pop    %r12
    3771:	41 5d                	pop    %r13
    3773:	41 5e                	pop    %r14
    3775:	41 5f                	pop    %r15
    3777:	c3                   	ret    
    3778:	0f 1f 84 00 00 00 00 00 	nopl   0x0(%rax,%rax,1)
    3780:	c3                   	ret    
    3781:	48 8d 3d 7c 48 00 00 	lea    0x487c(%rip),%rdi        # 8004 <_IO_stdin_used+0x4>
    3788:	e8 83 dc ff ff       	call   1410 <perror@plt>
    378d:	e8 ee da ff ff       	call   1280 <abort@plt>
    3792:	66 66 2e 0f 1f 84 00 00 00 00 00 	data16 cs nopw 0x0(%rax,%rax,1)
    379d:	0f 1f 00             	nopl   (%rax)

00000000000037a0 <h8_span_retire>:
    37a0:	f3 0f 1e fa          	endbr64 
    37a4:	48 83 ec 08          	sub    $0x8,%rsp
    37a8:	e8 83 fd ff ff       	call   3530 <h8_span_retire_logical>
    37ad:	48 85 c0             	test   %rax,%rax
    37b0:	74 1e                	je     37d0 <h8_span_retire+0x30>
    37b2:	48 c7 80 88 00 00 00 00 00 00 00 	movq   $0x0,0x88(%rax)
    37bd:	48 89 c7             	mov    %rax,%rdi
    37c0:	48 83 c4 08          	add    $0x8,%rsp
    37c4:	e9 37 fe ff ff       	jmp    3600 <h8_span_purge_retired_batch>
    37c9:	0f 1f 80 00 00 00 00 	nopl   0x0(%rax)
    37d0:	48 83 c4 08          	add    $0x8,%rsp
    37d4:	c3                   	ret    
    37d5:	66 66 2e 0f 1f 84 00 00 00 00 00 	data16 cs nopw 0x0(%rax,%rax,1)

00000000000037e0 <h8_span_from_ptr_checked>:
    37e0:	f3 0f 1e fa          	endbr64 
    37e4:	48 85 ff             	test   %rdi,%rdi
    37e7:	74 77                	je     3860 <h8_span_from_ptr_checked+0x80>
    37e9:	48 8d 05 90 88 00 00 	lea    0x8890(%rip),%rax        # c080 <h8g>
    37f0:	48 8b 50 10          	mov    0x10(%rax),%rdx
    37f4:	48 39 fa             	cmp    %rdi,%rdx
    37f7:	77 67                	ja     3860 <h8_span_from_ptr_checked+0x80>
    37f9:	48 8b 48 18          	mov    0x18(%rax),%rcx
    37fd:	48 01 d1             	add    %rdx,%rcx
    3800:	48 39 cf             	cmp    %rcx,%rdi
    3803:	73 5b                	jae    3860 <h8_span_from_ptr_checked+0x80>
    3805:	48 89 f9             	mov    %rdi,%rcx
    3808:	48 8b 40 38          	mov    0x38(%rax),%rax
    380c:	48 29 d1             	sub    %rdx,%rcx
    380f:	48 c1 e9 10          	shr    $0x10,%rcx
    3813:	48 8b 04 c8          	mov    (%rax,%rcx,8),%rax
    3817:	48 85 c0             	test   %rax,%rax
    381a:	74 44                	je     3860 <h8_span_from_ptr_checked+0x80>
    381c:	0f b6 50 4e          	movzbl 0x4e(%rax),%edx
    3820:	80 fa 05             	cmp    $0x5,%dl
    3823:	74 3b                	je     3860 <h8_span_from_ptr_checked+0x80>
    3825:	0f b7 48 08          	movzwl 0x8(%rax),%ecx
    3829:	48 c7 c2 ff ff ff ff 	mov    $0xffffffffffffffff,%rdx
    3830:	48 2b 38             	sub    (%rax),%rdi
    3833:	83 c1 04             	add    $0x4,%ecx
    3836:	48 d3 e2             	shl    %cl,%rdx
    3839:	48 f7 d2             	not    %rdx
    383c:	48 85 fa             	test   %rdi,%rdx
    383f:	75 1f                	jne    3860 <h8_span_from_ptr_checked+0x80>
    3841:	0f b7 50 0a          	movzwl 0xa(%rax),%edx
    3845:	48 d3 ef             	shr    %cl,%rdi
    3848:	48 39 d7             	cmp    %rdx,%rdi
    384b:	73 13                	jae    3860 <h8_span_from_ptr_checked+0x80>
    384d:	48 85 f6             	test   %rsi,%rsi
    3850:	74 16                	je     3868 <h8_span_from_ptr_checked+0x88>
    3852:	48 89 3e             	mov    %rdi,(%rsi)
    3855:	c3                   	ret    
    3856:	66 2e 0f 1f 84 00 00 00 00 00 	cs nopw 0x0(%rax,%rax,1)
    3860:	31 c0                	xor    %eax,%eax
    3862:	c3                   	ret    
    3863:	0f 1f 44 00 00       	nopl   0x0(%rax,%rax,1)
    3868:	c3                   	ret    
    3869:	0f 1f 80 00 00 00 00 	nopl   0x0(%rax)

0000000000003870 <h8_init_once>:
    3870:	f3 0f 1e fa          	endbr64 
    3874:	41 55                	push   %r13
    3876:	41 54                	push   %r12
    3878:	55                   	push   %rbp
    3879:	53                   	push   %rbx
    387a:	48 83 ec 08          	sub    $0x8,%rsp
    387e:	e8 ad 28 00 00       	call   6130 <h8_system_init>
    3883:	4c 8d 2d f6 87 00 00 	lea    0x87f6(%rip),%r13        # c080 <h8g>
    388a:	31 f6                	xor    %esi,%esi
    388c:	49 8d bd 48 4e 00 00 	lea    0x4e48(%r13),%rdi
    3893:	e8 a8 db ff ff       	call   1440 <pthread_mutex_init@plt>
    3898:	48 8d 3d 6d 47 00 00 	lea    0x476d(%rip),%rdi        # 800c <_IO_stdin_used+0xc>
    389f:	e8 bc d9 ff ff       	call   1260 <getenv@plt>
    38a4:	48 85 c0             	test   %rax,%rax
    38a7:	0f 84 f5 01 00 00    	je     3aa2 <h8_init_once+0x232>
    38ad:	31 ed                	xor    %ebp,%ebp
    38af:	80 38 00             	cmpb   $0x0,(%rax)
    38b2:	48 89 c3             	mov    %rax,%rbx
    38b5:	0f 84 85 00 00 00    	je     3940 <h8_init_once+0xd0>
    38bb:	80 38 31             	cmpb   $0x31,(%rax)
    38be:	0f 84 ca 01 00 00    	je     3a8e <h8_init_once+0x21e>
    38c4:	48 8d 35 5c 47 00 00 	lea    0x475c(%rip),%rsi        # 8027 <_IO_stdin_used+0x27>
    38cb:	48 89 df             	mov    %rbx,%rdi
    38ce:	bd 01 00 00 00       	mov    $0x1,%ebp
    38d3:	e8 98 da ff ff       	call   1370 <strcmp@plt>
    38d8:	85 c0                	test   %eax,%eax
    38da:	74 64                	je     3940 <h8_init_once+0xd0>
    38dc:	48 8d 35 49 47 00 00 	lea    0x4749(%rip),%rsi        # 802c <_IO_stdin_used+0x2c>
    38e3:	48 89 df             	mov    %rbx,%rdi
    38e6:	e8 85 da ff ff       	call   1370 <strcmp@plt>
    38eb:	85 c0                	test   %eax,%eax
    38ed:	74 51                	je     3940 <h8_init_once+0xd0>
    38ef:	48 8d 35 3b 47 00 00 	lea    0x473b(%rip),%rsi        # 8031 <_IO_stdin_used+0x31>
    38f6:	48 89 df             	mov    %rbx,%rdi
    38f9:	e8 72 da ff ff       	call   1370 <strcmp@plt>
    38fe:	85 c0                	test   %eax,%eax
    3900:	74 3e                	je     3940 <h8_init_once+0xd0>
    3902:	48 8d 35 2c 47 00 00 	lea    0x472c(%rip),%rsi        # 8035 <_IO_stdin_used+0x35>
    3909:	48 89 df             	mov    %rbx,%rdi
    390c:	e8 5f da ff ff       	call   1370 <strcmp@plt>
    3911:	85 c0                	test   %eax,%eax
    3913:	74 2b                	je     3940 <h8_init_once+0xd0>
    3915:	0f b6 03             	movzbl (%rbx),%eax
    3918:	83 f8 6f             	cmp    $0x6f,%eax
    391b:	0f 84 88 01 00 00    	je     3aa9 <h8_init_once+0x239>
    3921:	83 e8 4f             	sub    $0x4f,%eax
    3924:	75 0d                	jne    3933 <h8_init_once+0xc3>
    3926:	0f b6 43 01          	movzbl 0x1(%rbx),%eax
    392a:	83 e8 4e             	sub    $0x4e,%eax
    392d:	75 04                	jne    3933 <h8_init_once+0xc3>
    392f:	0f b6 43 02          	movzbl 0x2(%rbx),%eax
    3933:	31 ed                	xor    %ebp,%ebp
    3935:	85 c0                	test   %eax,%eax
    3937:	40 0f 94 c5          	sete   %bpl
    393b:	0f 1f 44 00 00       	nopl   0x0(%rax,%rax,1)
    3940:	41 88 ad 60 54 00 00 	mov    %bpl,0x5460(%r13)
    3947:	45 31 c9             	xor    %r9d,%r9d
    394a:	41 b8 ff ff ff ff    	mov    $0xffffffff,%r8d
    3950:	b9 22 40 00 00       	mov    $0x4022,%ecx
    3955:	41 c6 85 61 54 00 00 00 	movb   $0x0,0x5461(%r13)
    395d:	ba 03 00 00 00       	mov    $0x3,%edx
    3962:	31 ff                	xor    %edi,%edi
    3964:	48 be 00 00 00 00 10 00 00 00 	movabs $0x1000000000,%rsi
    396e:	41 c6 85 62 54 00 00 00 	movb   $0x0,0x5462(%r13)
    3976:	49 89 75 18          	mov    %rsi,0x18(%r13)
    397a:	49 c7 45 20 00 00 10 00 	movq   $0x100000,0x20(%r13)
    3982:	e8 79 d9 ff ff       	call   1300 <mmap@plt>
    3987:	49 89 45 10          	mov    %rax,0x10(%r13)
    398b:	48 83 f8 ff          	cmp    $0xffffffffffffffff,%rax
    398f:	0f 84 2d 01 00 00    	je     3ac2 <h8_init_once+0x252>
    3995:	49 8b 7d 20          	mov    0x20(%r13),%rdi
    3999:	be 08 00 00 00       	mov    $0x8,%esi
    399e:	e8 ad 27 00 00       	call   6150 <h8_sys_calloc>
    39a3:	49 89 45 38          	mov    %rax,0x38(%r13)
    39a7:	48 85 c0             	test   %rax,%rax
    39aa:	0f 84 3d 01 00 00    	je     3aed <h8_init_once+0x27d>
    39b0:	48 8d 35 49 01 00 00 	lea    0x149(%rip),%rsi        # 3b00 <h8_thread_shutdown>
    39b7:	49 8d 7d 04          	lea    0x4(%r13),%rdi
    39bb:	e8 60 d9 ff ff       	call   1320 <pthread_key_create@plt>
    39c0:	85 c0                	test   %eax,%eax
    39c2:	0f 85 1c 01 00 00    	jne    3ae4 <h8_init_once+0x274>
    39c8:	31 f6                	xor    %esi,%esi
    39ca:	49 8d bd 20 01 00 00 	lea    0x120(%r13),%rdi
    39d1:	49 8d 5d 40          	lea    0x40(%r13),%rbx
    39d5:	bd 01 00 00 00       	mov    $0x1,%ebp
    39da:	e8 61 da ff ff       	call   1440 <pthread_mutex_init@plt>
    39df:	31 f6                	xor    %esi,%esi
    39e1:	49 8d bd 48 01 00 00 	lea    0x148(%r13),%rdi
    39e8:	e8 53 da ff ff       	call   1440 <pthread_mutex_init@plt>
    39ed:	48 89 df             	mov    %rbx,%rdi
    39f0:	b9 01 00 00 00       	mov    $0x1,%ecx
    39f5:	31 f6                	xor    %esi,%esi
    39f7:	ba 01 00 00 00       	mov    $0x1,%edx
    39fc:	e8 0f 0f 00 00       	call   4910 <h8_owner_mark_alive>
    3a01:	41 c6 45 50 01       	movb   $0x1,0x50(%r13)
    3a06:	49 c7 85 40 4e 00 00 00 00 00 00 	movq   $0x0,0x4e40(%r13)
    3a11:	49 89 9d 70 4e 00 00 	mov    %rbx,0x4e70(%r13)
    3a18:	49 89 9d 78 4e 00 00 	mov    %rbx,0x4e78(%r13)
    3a1f:	49 8d 9d 58 02 00 00 	lea    0x258(%r13),%rbx
    3a26:	66 2e 0f 1f 84 00 00 00 00 00 	cs nopw 0x0(%rax,%rax,1)
    3a30:	48 89 df             	mov    %rbx,%rdi
    3a33:	31 f6                	xor    %esi,%esi
    3a35:	4c 8d a3 20 ff ff ff 	lea    -0xe0(%rbx),%r12
    3a3c:	e8 ff d9 ff ff       	call   1440 <pthread_mutex_init@plt>
    3a41:	48 8d 7b 28          	lea    0x28(%rbx),%rdi
    3a45:	31 f6                	xor    %esi,%esi
    3a47:	48 81 c3 38 01 00 00 	add    $0x138,%rbx
    3a4e:	e8 ed d9 ff ff       	call   1440 <pthread_mutex_init@plt>
    3a53:	4c 89 e7             	mov    %r12,%rdi
    3a56:	e8 95 0f 00 00       	call   49f0 <h8_owner_mark_dead>
    3a5b:	49 8b 85 40 4e 00 00 	mov    0x4e40(%r13),%rax
    3a62:	89 ab f0 fd ff ff    	mov    %ebp,-0x210(%rbx)
    3a68:	83 c5 01             	add    $0x1,%ebp
    3a6b:	48 89 83 18 ff ff ff 	mov    %rax,-0xe8(%rbx)
    3a72:	4d 89 a5 40 4e 00 00 	mov    %r12,0x4e40(%r13)
    3a79:	83 fd 40             	cmp    $0x40,%ebp
    3a7c:	75 b2                	jne    3a30 <h8_init_once+0x1c0>
    3a7e:	41 c6 45 08 01       	movb   $0x1,0x8(%r13)
    3a83:	48 83 c4 08          	add    $0x8,%rsp
    3a87:	5b                   	pop    %rbx
    3a88:	5d                   	pop    %rbp
    3a89:	41 5c                	pop    %r12
    3a8b:	41 5d                	pop    %r13
    3a8d:	c3                   	ret    
    3a8e:	80 78 01 00          	cmpb   $0x0,0x1(%rax)
    3a92:	bd 01 00 00 00       	mov    $0x1,%ebp
    3a97:	0f 84 a3 fe ff ff    	je     3940 <h8_init_once+0xd0>
    3a9d:	e9 22 fe ff ff       	jmp    38c4 <h8_init_once+0x54>
    3aa2:	31 ed                	xor    %ebp,%ebp
    3aa4:	e9 97 fe ff ff       	jmp    3940 <h8_init_once+0xd0>
    3aa9:	80 7b 01 6e          	cmpb   $0x6e,0x1(%rbx)
    3aad:	0f 85 6e fe ff ff    	jne    3921 <h8_init_once+0xb1>
    3ab3:	80 7b 02 00          	cmpb   $0x0,0x2(%rbx)
    3ab7:	0f 84 83 fe ff ff    	je     3940 <h8_init_once+0xd0>
    3abd:	e9 5f fe ff ff       	jmp    3921 <h8_init_once+0xb1>
    3ac2:	48 8d 15 70 45 00 00 	lea    0x4570(%rip),%rdx        # 8039 <_IO_stdin_used+0x39>
    3ac9:	48 8b 05 28 85 00 00 	mov    0x8528(%rip),%rax        # bff8 <stderr@GLIBC_2.2.5>
    3ad0:	be 01 00 00 00       	mov    $0x1,%esi
    3ad5:	48 8b 38             	mov    (%rax),%rdi
    3ad8:	31 c0                	xor    %eax,%eax
    3ada:	e8 41 d9 ff ff       	call   1420 <__fprintf_chk@plt>
    3adf:	e8 9c d7 ff ff       	call   1280 <abort@plt>
    3ae4:	48 8d 15 6c 45 00 00 	lea    0x456c(%rip),%rdx        # 8057 <_IO_stdin_used+0x57>
    3aeb:	eb dc                	jmp    3ac9 <h8_init_once+0x259>
    3aed:	48 8d 15 7c 45 00 00 	lea    0x457c(%rip),%rdx        # 8070 <_IO_stdin_used+0x70>
    3af4:	eb d3                	jmp    3ac9 <h8_init_once+0x259>
    3af6:	66 2e 0f 1f 84 00 00 00 00 00 	cs nopw 0x0(%rax,%rax,1)

0000000000003b00 <h8_thread_shutdown>:
    3b00:	f3 0f 1e fa          	endbr64 
    3b04:	48 85 ff             	test   %rdi,%rdi
    3b07:	74 37                	je     3b40 <h8_thread_shutdown+0x40>
    3b09:	48 c7 c0 f8 ff ff ff 	mov    $0xfffffffffffffff8,%rax
    3b10:	55                   	push   %rbp
    3b11:	48 89 fd             	mov    %rdi,%rbp
    3b14:	64 48 39 38          	cmp    %rdi,%fs:(%rax)
    3b18:	74 16                	je     3b30 <h8_thread_shutdown+0x30>
    3b1a:	48 8b 7d 00          	mov    0x0(%rbp),%rdi
    3b1e:	e8 6d 10 00 00       	call   4b90 <h8_owner_exit>
    3b23:	48 89 ef             	mov    %rbp,%rdi
    3b26:	5d                   	pop    %rbp
    3b27:	e9 34 26 00 00       	jmp    6160 <h8_sys_free>
    3b2c:	0f 1f 40 00          	nopl   0x0(%rax)
    3b30:	64 48 c7 00 00 00 00 00 	movq   $0x0,%fs:(%rax)
    3b38:	eb e0                	jmp    3b1a <h8_thread_shutdown+0x1a>
    3b3a:	66 0f 1f 44 00 00    	nopw   0x0(%rax,%rax,1)
    3b40:	c3                   	ret    
    3b41:	66 66 2e 0f 1f 84 00 00 00 00 00 	data16 cs nopw 0x0(%rax,%rax,1)
    3b4c:	0f 1f 40 00          	nopl   0x0(%rax)

0000000000003b50 <h8_init>:
    3b50:	f3 0f 1e fa          	endbr64 
    3b54:	48 8d 3d 25 85 00 00 	lea    0x8525(%rip),%rdi        # c080 <h8g>
    3b5b:	48 8d 35 0e fd ff ff 	lea    -0x2f2(%rip),%rsi        # 3870 <h8_init_once>
    3b62:	e9 e9 d8 ff ff       	jmp    1450 <pthread_once@plt>
    3b67:	66 0f 1f 84 00 00 00 00 00 	nopw   0x0(%rax,%rax,1)

0000000000003b70 <h8_shutdown>:
    3b70:	f3 0f 1e fa          	endbr64 
    3b74:	c3                   	ret    
    3b75:	66 66 2e 0f 1f 84 00 00 00 00 00 	data16 cs nopw 0x0(%rax,%rax,1)

0000000000003b80 <h8_orphan_owner>:
    3b80:	f3 0f 1e fa          	endbr64 
    3b84:	48 83 ec 08          	sub    $0x8,%rsp
    3b88:	e8 c3 ff ff ff       	call   3b50 <h8_init>
    3b8d:	48 8d 05 ec 84 00 00 	lea    0x84ec(%rip),%rax        # c080 <h8g>
    3b94:	48 8b 80 70 4e 00 00 	mov    0x4e70(%rax),%rax
    3b9b:	48 83 c4 08          	add    $0x8,%rsp
    3b9f:	c3                   	ret    

0000000000003ba0 <h8_thread_ctx_get_slow>:
    3ba0:	f3 0f 1e fa          	endbr64 
    3ba4:	41 55                	push   %r13
    3ba6:	41 54                	push   %r12
    3ba8:	55                   	push   %rbp
    3ba9:	53                   	push   %rbx
    3baa:	48 83 ec 08          	sub    $0x8,%rsp
    3bae:	e8 9d ff ff ff       	call   3b50 <h8_init>
    3bb3:	48 8d 1d c6 84 00 00 	lea    0x84c6(%rip),%rbx        # c080 <h8g>
    3bba:	8b 7b 04             	mov    0x4(%rbx),%edi
    3bbd:	e8 fe d6 ff ff       	call   12c0 <pthread_getspecific@plt>
    3bc2:	48 85 c0             	test   %rax,%rax
    3bc5:	74 21                	je     3be8 <h8_thread_ctx_get_slow+0x48>
    3bc7:	49 89 c4             	mov    %rax,%r12
    3bca:	48 c7 c0 f8 ff ff ff 	mov    $0xfffffffffffffff8,%rax
    3bd1:	64 4c 89 20          	mov    %r12,%fs:(%rax)
    3bd5:	48 83 c4 08          	add    $0x8,%rsp
    3bd9:	4c 89 e0             	mov    %r12,%rax
    3bdc:	5b                   	pop    %rbx
    3bdd:	5d                   	pop    %rbp
    3bde:	41 5c                	pop    %r12
    3be0:	41 5d                	pop    %r13
    3be2:	c3                   	ret    
    3be3:	0f 1f 44 00 00       	nopl   0x0(%rax,%rax,1)
    3be8:	be 50 00 00 00       	mov    $0x50,%esi
    3bed:	bf 01 00 00 00       	mov    $0x1,%edi
    3bf2:	e8 59 25 00 00       	call   6150 <h8_sys_calloc>
    3bf7:	49 89 c4             	mov    %rax,%r12
    3bfa:	48 85 c0             	test   %rax,%rax
    3bfd:	74 d6                	je     3bd5 <h8_thread_ctx_get_slow+0x35>
    3bff:	4c 8d ab 48 4e 00 00 	lea    0x4e48(%rbx),%r13
    3c06:	4c 89 ef             	mov    %r13,%rdi
    3c09:	e8 52 d8 ff ff       	call   1460 <pthread_mutex_lock@plt>
    3c0e:	48 8b ab 40 4e 00 00 	mov    0x4e40(%rbx),%rbp
    3c15:	48 85 ed             	test   %rbp,%rbp
    3c18:	74 66                	je     3c80 <h8_thread_ctx_get_slow+0xe0>
    3c1a:	48 8b 85 30 01 00 00 	mov    0x130(%rbp),%rax
    3c21:	4c 89 ef             	mov    %r13,%rdi
    3c24:	48 89 83 40 4e 00 00 	mov    %rax,0x4e40(%rbx)
    3c2b:	e8 60 d7 ff ff       	call   1390 <pthread_mutex_unlock@plt>
    3c30:	0f b7 45 0c          	movzwl 0xc(%rbp),%eax
    3c34:	8b 75 08             	mov    0x8(%rbp),%esi
    3c37:	31 c9                	xor    %ecx,%ecx
    3c39:	48 89 ef             	mov    %rbp,%rdi
    3c3c:	8d 50 01             	lea    0x1(%rax),%edx
    3c3f:	0f b7 d2             	movzwl %dx,%edx
    3c42:	e8 c9 0c 00 00       	call   4910 <h8_owner_mark_alive>
    3c47:	49 89 2c 24          	mov    %rbp,(%r12)
    3c4b:	f0 48 83 83 80 4e 00 00 01 	lock addq $0x1,0x4e80(%rbx)
    3c54:	48 c7 c0 f8 ff ff ff 	mov    $0xfffffffffffffff8,%rax
    3c5b:	64 4c 89 20          	mov    %r12,%fs:(%rax)
    3c5f:	8b 7b 04             	mov    0x4(%rbx),%edi
    3c62:	4c 89 e6             	mov    %r12,%rsi
    3c65:	e8 06 d8 ff ff       	call   1470 <pthread_setspecific@plt>
    3c6a:	48 83 c4 08          	add    $0x8,%rsp
    3c6e:	4c 89 e0             	mov    %r12,%rax
    3c71:	5b                   	pop    %rbx
    3c72:	5d                   	pop    %rbp
    3c73:	41 5c                	pop    %r12
    3c75:	41 5d                	pop    %r13
    3c77:	c3                   	ret    
    3c78:	0f 1f 84 00 00 00 00 00 	nopl   0x0(%rax,%rax,1)
    3c80:	4c 89 ef             	mov    %r13,%rdi
    3c83:	e8 08 d7 ff ff       	call   1390 <pthread_mutex_unlock@plt>
    3c88:	4c 89 e7             	mov    %r12,%rdi
    3c8b:	45 31 e4             	xor    %r12d,%r12d
    3c8e:	e8 cd 24 00 00       	call   6160 <h8_sys_free>
    3c93:	e9 3d ff ff ff       	jmp    3bd5 <h8_thread_ctx_get_slow+0x35>
    3c98:	0f 1f 84 00 00 00 00 00 	nopl   0x0(%rax,%rax,1)

0000000000003ca0 <h8_thread_ctx_get>:
    3ca0:	f3 0f 1e fa          	endbr64 
    3ca4:	48 c7 c0 f8 ff ff ff 	mov    $0xfffffffffffffff8,%rax
    3cab:	64 48 8b 00          	mov    %fs:(%rax),%rax
    3caf:	48 85 c0             	test   %rax,%rax
    3cb2:	74 04                	je     3cb8 <h8_thread_ctx_get+0x18>
    3cb4:	c3                   	ret    
    3cb5:	0f 1f 00             	nopl   (%rax)
    3cb8:	e9 e3 fe ff ff       	jmp    3ba0 <h8_thread_ctx_get_slow>
    3cbd:	0f 1f 00             	nopl   (%rax)

0000000000003cc0 <h8_owner_current>:
    3cc0:	f3 0f 1e fa          	endbr64 
    3cc4:	48 c7 c0 f8 ff ff ff 	mov    $0xfffffffffffffff8,%rax
    3ccb:	64 48 8b 00          	mov    %fs:(%rax),%rax
    3ccf:	48 85 c0             	test   %rax,%rax
    3cd2:	74 0c                	je     3ce0 <h8_owner_current+0x20>
    3cd4:	48 8b 00             	mov    (%rax),%rax
    3cd7:	c3                   	ret    
    3cd8:	0f 1f 84 00 00 00 00 00 	nopl   0x0(%rax,%rax,1)
    3ce0:	48 83 ec 08          	sub    $0x8,%rsp
    3ce4:	e8 b7 fe ff ff       	call   3ba0 <h8_thread_ctx_get_slow>
    3ce9:	48 85 c0             	test   %rax,%rax
    3cec:	75 13                	jne    3d01 <h8_owner_current+0x41>
    3cee:	48 8d 05 8b 83 00 00 	lea    0x838b(%rip),%rax        # c080 <h8g>
    3cf5:	48 8b 80 70 4e 00 00 	mov    0x4e70(%rax),%rax
    3cfc:	48 83 c4 08          	add    $0x8,%rsp
    3d00:	c3                   	ret    
    3d01:	48 8b 00             	mov    (%rax),%rax
    3d04:	eb f6                	jmp    3cfc <h8_owner_current+0x3c>
    3d06:	66 2e 0f 1f 84 00 00 00 00 00 	cs nopw 0x0(%rax,%rax,1)

0000000000003d10 <h8_route_inner>:
    3d10:	f3 0f 1e fa          	endbr64 
    3d14:	53                   	push   %rbx
    3d15:	48 89 fb             	mov    %rdi,%rbx
    3d18:	e8 33 fe ff ff       	call   3b50 <h8_init>
    3d1d:	48 85 db             	test   %rbx,%rbx
    3d20:	0f 84 92 00 00 00    	je     3db8 <h8_route_inner+0xa8>
    3d26:	48 8d 15 53 83 00 00 	lea    0x8353(%rip),%rdx        # c080 <h8g>
    3d2d:	31 c0                	xor    %eax,%eax
    3d2f:	48 8b 4a 10          	mov    0x10(%rdx),%rcx
    3d33:	48 39 cb             	cmp    %rcx,%rbx
    3d36:	72 77                	jb     3daf <h8_route_inner+0x9f>
    3d38:	48 8b 72 18          	mov    0x18(%rdx),%rsi
    3d3c:	48 01 ce             	add    %rcx,%rsi
    3d3f:	48 39 f3             	cmp    %rsi,%rbx
    3d42:	73 6b                	jae    3daf <h8_route_inner+0x9f>
    3d44:	48 89 d8             	mov    %rbx,%rax
    3d47:	48 8b 52 38          	mov    0x38(%rdx),%rdx
    3d4b:	48 29 c8             	sub    %rcx,%rax
    3d4e:	48 c1 e8 10          	shr    $0x10,%rax
    3d52:	48 8b 14 c2          	mov    (%rdx,%rax,8),%rdx
    3d56:	48 85 d2             	test   %rdx,%rdx
    3d59:	74 5d                	je     3db8 <h8_route_inner+0xa8>
    3d5b:	0f b6 42 4e          	movzbl 0x4e(%rdx),%eax
    3d5f:	3c 05                	cmp    $0x5,%al
    3d61:	74 55                	je     3db8 <h8_route_inner+0xa8>
    3d63:	0f b7 4a 08          	movzwl 0x8(%rdx),%ecx
    3d67:	48 c7 c0 ff ff ff ff 	mov    $0xffffffffffffffff,%rax
    3d6e:	48 2b 1a             	sub    (%rdx),%rbx
    3d71:	83 c1 04             	add    $0x4,%ecx
    3d74:	48 d3 e0             	shl    %cl,%rax
    3d77:	48 f7 d0             	not    %rax
    3d7a:	48 85 d8             	test   %rbx,%rax
    3d7d:	75 39                	jne    3db8 <h8_route_inner+0xa8>
    3d7f:	0f b7 42 0a          	movzwl 0xa(%rdx),%eax
    3d83:	48 d3 eb             	shr    %cl,%rbx
    3d86:	48 39 c3             	cmp    %rax,%rbx
    3d89:	73 2d                	jae    3db8 <h8_route_inner+0xa8>
    3d8b:	48 8b 42 20          	mov    0x20(%rdx),%rax
    3d8f:	8b 04 98             	mov    (%rax,%rbx,4),%eax
    3d92:	c1 e8 1e             	shr    $0x1e,%eax
    3d95:	83 f8 01             	cmp    $0x1,%eax
    3d98:	75 1e                	jne    3db8 <h8_route_inner+0xa8>
    3d9a:	48 8b 52 18          	mov    0x18(%rdx),%rdx
    3d9e:	48 89 d9             	mov    %rbx,%rcx
    3da1:	48 c1 e9 06          	shr    $0x6,%rcx
    3da5:	48 8b 14 ca          	mov    (%rdx,%rcx,8),%rdx
    3da9:	48 0f a3 da          	bt     %rbx,%rdx
    3dad:	72 09                	jb     3db8 <h8_route_inner+0xa8>
    3daf:	5b                   	pop    %rbx
    3db0:	c3                   	ret    
    3db1:	0f 1f 80 00 00 00 00 	nopl   0x0(%rax)
    3db8:	b8 02 00 00 00       	mov    $0x2,%eax
    3dbd:	5b                   	pop    %rbx
    3dbe:	c3                   	ret    
    3dbf:	90                   	nop

0000000000003dc0 <h8_route>:
    3dc0:	f3 0f 1e fa          	endbr64 
    3dc4:	e9 47 ff ff ff       	jmp    3d10 <h8_route_inner>
    3dc9:	0f 1f 80 00 00 00 00 	nopl   0x0(%rax)

0000000000003dd0 <h8_stats_snapshot>:
    3dd0:	f3 0f 1e fa          	endbr64 
    3dd4:	48 8d 05 a5 82 00 00 	lea    0x82a5(%rip),%rax        # c080 <h8g>
    3ddb:	48 89 fe             	mov    %rdi,%rsi
    3dde:	48 8b 78 20          	mov    0x20(%rax),%rdi
    3de2:	48 85 ff             	test   %rdi,%rdi
    3de5:	74 28                	je     3e0f <h8_stats_snapshot+0x3f>
    3de7:	31 d2                	xor    %edx,%edx
    3de9:	31 ff                	xor    %edi,%edi
    3deb:	0f 1f 44 00 00       	nopl   0x0(%rax,%rax,1)
    3df0:	48 8b 48 38          	mov    0x38(%rax),%rcx
    3df4:	48 85 c9             	test   %rcx,%rcx
    3df7:	74 0c                	je     3e05 <h8_stats_snapshot+0x35>
    3df9:	48 8b 0c d1          	mov    (%rcx,%rdx,8),%rcx
    3dfd:	48 83 f9 01          	cmp    $0x1,%rcx
    3e01:	48 83 df ff          	sbb    $0xffffffffffffffff,%rdi
    3e05:	48 83 c2 01          	add    $0x1,%rdx
    3e09:	48 39 50 20          	cmp    %rdx,0x20(%rax)
    3e0d:	77 e1                	ja     3df0 <h8_stats_snapshot+0x20>
    3e0f:	48 8b 50 18          	mov    0x18(%rax),%rdx
    3e13:	48 89 16             	mov    %rdx,(%rsi)
    3e16:	48 8b 50 28          	mov    0x28(%rax),%rdx
    3e1a:	48 89 56 08          	mov    %rdx,0x8(%rsi)
    3e1e:	48 89 7e 10          	mov    %rdi,0x10(%rsi)
    3e22:	48 8b 90 80 4e 00 00 	mov    0x4e80(%rax),%rdx
    3e29:	48 89 56 18          	mov    %rdx,0x18(%rsi)
    3e2d:	48 8b 90 88 4e 00 00 	mov    0x4e88(%rax),%rdx
    3e34:	48 89 56 20          	mov    %rdx,0x20(%rsi)
    3e38:	48 8b 90 90 4e 00 00 	mov    0x4e90(%rax),%rdx
    3e3f:	48 89 56 28          	mov    %rdx,0x28(%rsi)
    3e43:	48 8b 90 98 4e 00 00 	mov    0x4e98(%rax),%rdx
    3e4a:	48 89 56 30          	mov    %rdx,0x30(%rsi)
    3e4e:	48 8b 90 a0 4e 00 00 	mov    0x4ea0(%rax),%rdx
    3e55:	48 89 56 38          	mov    %rdx,0x38(%rsi)
    3e59:	48 8b 90 a8 4e 00 00 	mov    0x4ea8(%rax),%rdx
    3e60:	48 89 56 40          	mov    %rdx,0x40(%rsi)
    3e64:	48 8b 90 c0 4e 00 00 	mov    0x4ec0(%rax),%rdx
    3e6b:	48 89 56 48          	mov    %rdx,0x48(%rsi)
    3e6f:	48 8b 90 e0 4f 00 00 	mov    0x4fe0(%rax),%rdx
    3e76:	48 89 56 50          	mov    %rdx,0x50(%rsi)
    3e7a:	48 8b 90 e8 4f 00 00 	mov    0x4fe8(%rax),%rdx
    3e81:	48 89 56 58          	mov    %rdx,0x58(%rsi)
    3e85:	48 8b 90 90 53 00 00 	mov    0x5390(%rax),%rdx
    3e8c:	48 89 56 60          	mov    %rdx,0x60(%rsi)
    3e90:	48 8b 80 98 53 00 00 	mov    0x5398(%rax),%rax
    3e97:	48 89 46 68          	mov    %rax,0x68(%rsi)
    3e9b:	c3                   	ret    
    3e9c:	0f 1f 40 00          	nopl   0x0(%rax)

0000000000003ea0 <h8_stats>:
    3ea0:	f3 0f 1e fa          	endbr64 
    3ea4:	41 54                	push   %r12
    3ea6:	b9 0e 00 00 00       	mov    $0xe,%ecx
    3eab:	49 89 fc             	mov    %rdi,%r12
    3eae:	48 83 c4 80          	add    $0xffffffffffffff80,%rsp
    3eb2:	64 48 8b 04 25 28 00 00 00 	mov    %fs:0x28,%rax
    3ebb:	48 89 44 24 78       	mov    %rax,0x78(%rsp)
    3ec0:	31 c0                	xor    %eax,%eax
    3ec2:	49 89 e0             	mov    %rsp,%r8
    3ec5:	4c 89 c7             	mov    %r8,%rdi
    3ec8:	f3 48 ab             	rep stos %rax,%es:(%rdi)
    3ecb:	4c 89 c7             	mov    %r8,%rdi
    3ece:	e8 fd fe ff ff       	call   3dd0 <h8_stats_snapshot>
    3ed3:	66 0f 6f 04 24       	movdqa (%rsp),%xmm0
    3ed8:	66 0f 6f 4c 24 10    	movdqa 0x10(%rsp),%xmm1
    3ede:	66 0f 6f 54 24 20    	movdqa 0x20(%rsp),%xmm2
    3ee4:	66 0f 6f 5c 24 30    	movdqa 0x30(%rsp),%xmm3
    3eea:	66 0f 6f 64 24 40    	movdqa 0x40(%rsp),%xmm4
    3ef0:	66 0f 6f 6c 24 50    	movdqa 0x50(%rsp),%xmm5
    3ef6:	41 0f 11 04 24       	movups %xmm0,(%r12)
    3efb:	66 0f 6f 74 24 60    	movdqa 0x60(%rsp),%xmm6
    3f01:	41 0f 11 4c 24 10    	movups %xmm1,0x10(%r12)
    3f07:	41 0f 11 54 24 20    	movups %xmm2,0x20(%r12)
    3f0d:	41 0f 11 5c 24 30    	movups %xmm3,0x30(%r12)
    3f13:	41 0f 11 64 24 40    	movups %xmm4,0x40(%r12)
    3f19:	41 0f 11 6c 24 50    	movups %xmm5,0x50(%r12)
    3f1f:	41 0f 11 74 24 60    	movups %xmm6,0x60(%r12)
    3f25:	48 8b 44 24 78       	mov    0x78(%rsp),%rax
    3f2a:	64 48 2b 04 25 28 00 00 00 	sub    %fs:0x28,%rax
    3f33:	75 0a                	jne    3f3f <h8_stats+0x9f>
    3f35:	48 83 ec 80          	sub    $0xffffffffffffff80,%rsp
    3f39:	4c 89 e0             	mov    %r12,%rax
    3f3c:	41 5c                	pop    %r12
    3f3e:	c3                   	ret    
    3f3f:	e8 ac d3 ff ff       	call   12f0 <__stack_chk_fail@plt>
    3f44:	66 66 2e 0f 1f 84 00 00 00 00 00 	data16 cs nopw 0x0(%rax,%rax,1)
    3f4f:	90                   	nop

0000000000003f50 <h8_debug_stats_snapshot>:
    3f50:	f3 0f 1e fa          	endbr64 
    3f54:	48 c7 07 00 00 00 00 	movq   $0x0,(%rdi)
    3f5b:	48 89 f9             	mov    %rdi,%rcx
    3f5e:	48 8d 7f 08          	lea    0x8(%rdi),%rdi
    3f62:	31 c0                	xor    %eax,%eax
    3f64:	48 c7 87 78 05 00 00 00 00 00 00 	movq   $0x0,0x578(%rdi)
    3f6f:	48 83 e7 f8          	and    $0xfffffffffffffff8,%rdi
    3f73:	48 29 f9             	sub    %rdi,%rcx
    3f76:	81 c1 88 05 00 00    	add    $0x588,%ecx
    3f7c:	c1 e9 03             	shr    $0x3,%ecx
    3f7f:	f3 48 ab             	rep stos %rax,%es:(%rdi)
    3f82:	c3                   	ret    
    3f83:	66 66 2e 0f 1f 84 00 00 00 00 00 	data16 cs nopw 0x0(%rax,%rax,1)
    3f8e:	66 90                	xchg   %ax,%ax

0000000000003f90 <h8_debug_stats>:
    3f90:	f3 0f 1e fa          	endbr64 
    3f94:	41 54                	push   %r12
    3f96:	b9 b1 00 00 00       	mov    $0xb1,%ecx
    3f9b:	49 89 fc             	mov    %rdi,%r12
    3f9e:	55                   	push   %rbp
    3f9f:	48 81 ec 98 05 00 00 	sub    $0x598,%rsp
    3fa6:	64 48 8b 04 25 28 00 00 00 	mov    %fs:0x28,%rax
    3faf:	48 89 84 24 88 05 00 00 	mov    %rax,0x588(%rsp)
    3fb7:	31 c0                	xor    %eax,%eax
    3fb9:	48 89 e5             	mov    %rsp,%rbp
    3fbc:	48 89 ef             	mov    %rbp,%rdi
    3fbf:	f3 48 ab             	rep stos %rax,%es:(%rdi)
    3fc2:	48 89 ef             	mov    %rbp,%rdi
    3fc5:	e8 86 ff ff ff       	call   3f50 <h8_debug_stats_snapshot>
    3fca:	b9 b1 00 00 00       	mov    $0xb1,%ecx
    3fcf:	4c 89 e7             	mov    %r12,%rdi
    3fd2:	48 89 ee             	mov    %rbp,%rsi
    3fd5:	f3 48 a5             	rep movsq %ds:(%rsi),%es:(%rdi)
    3fd8:	48 8b 84 24 88 05 00 00 	mov    0x588(%rsp),%rax
    3fe0:	64 48 2b 04 25 28 00 00 00 	sub    %fs:0x28,%rax
    3fe9:	75 0e                	jne    3ff9 <h8_debug_stats+0x69>
    3feb:	48 81 c4 98 05 00 00 	add    $0x598,%rsp
    3ff2:	4c 89 e0             	mov    %r12,%rax
    3ff5:	5d                   	pop    %rbp
    3ff6:	41 5c                	pop    %r12
    3ff8:	c3                   	ret    
    3ff9:	e8 f2 d2 ff ff       	call   12f0 <__stack_chk_fail@plt>
    3ffe:	66 90                	xchg   %ax,%ax

0000000000004000 <h8_span_publish_exit>:
    4000:	f3 0f 1e fa          	endbr64 
    4004:	66 f0 83 6f 50 01    	lock subw $0x1,0x50(%rdi)
    400a:	c3                   	ret    
    400b:	0f 1f 44 00 00       	nopl   0x0(%rax,%rax,1)

0000000000004010 <h8_span_publish_enter>:
    4010:	f3 0f 1e fa          	endbr64 
    4014:	0f b7 47 50          	movzwl 0x50(%rdi),%eax
    4018:	48 8d 57 4f          	lea    0x4f(%rdi),%rdx
    401c:	48 8d 4f 50          	lea    0x50(%rdi),%rcx
    4020:	0f b6 32             	movzbl (%rdx),%esi
    4023:	40 84 f6             	test   %sil,%sil
    4026:	75 48                	jne    4070 <h8_span_publish_enter+0x60>
    4028:	0f b6 77 4e          	movzbl 0x4e(%rdi),%esi
    402c:	4c 8d 47 4e          	lea    0x4e(%rdi),%r8
    4030:	40 84 f6             	test   %sil,%sil
    4033:	75 3b                	jne    4070 <h8_span_publish_enter+0x60>
    4035:	48 83 ec 08          	sub    $0x8,%rsp
    4039:	0f 1f 80 00 00 00 00 	nopl   0x0(%rax)
    4040:	66 83 f8 ff          	cmp    $0xffff,%ax
    4044:	0f 84 36 d4 ff ff    	je     1480 <h8_span_publish_enter.cold>
    404a:	8d 70 01             	lea    0x1(%rax),%esi
    404d:	66 f0 0f b1 31       	lock cmpxchg %si,(%rcx)
    4052:	75 24                	jne    4078 <h8_span_publish_enter+0x68>
    4054:	0f b6 02             	movzbl (%rdx),%eax
    4057:	84 c0                	test   %al,%al
    4059:	75 3d                	jne    4098 <h8_span_publish_enter+0x88>
    405b:	41 0f b6 00          	movzbl (%r8),%eax
    405f:	84 c0                	test   %al,%al
    4061:	75 35                	jne    4098 <h8_span_publish_enter+0x88>
    4063:	b8 01 00 00 00       	mov    $0x1,%eax
    4068:	48 83 c4 08          	add    $0x8,%rsp
    406c:	c3                   	ret    
    406d:	0f 1f 00             	nopl   (%rax)
    4070:	31 c0                	xor    %eax,%eax
    4072:	c3                   	ret    
    4073:	0f 1f 44 00 00       	nopl   0x0(%rax,%rax,1)
    4078:	0f b6 32             	movzbl (%rdx),%esi
    407b:	40 84 f6             	test   %sil,%sil
    407e:	75 0d                	jne    408d <h8_span_publish_enter+0x7d>
    4080:	0f b6 77 4e          	movzbl 0x4e(%rdi),%esi
    4084:	4c 8d 47 4e          	lea    0x4e(%rdi),%r8
    4088:	40 84 f6             	test   %sil,%sil
    408b:	74 b3                	je     4040 <h8_span_publish_enter+0x30>
    408d:	31 c0                	xor    %eax,%eax
    408f:	48 83 c4 08          	add    $0x8,%rsp
    4093:	c3                   	ret    
    4094:	0f 1f 40 00          	nopl   0x0(%rax)
    4098:	e8 63 ff ff ff       	call   4000 <h8_span_publish_exit>
    409d:	31 c0                	xor    %eax,%eax
    409f:	eb ee                	jmp    408f <h8_span_publish_enter+0x7f>
    40a1:	66 66 2e 0f 1f 84 00 00 00 00 00 	data16 cs nopw 0x0(%rax,%rax,1)
    40ac:	0f 1f 40 00          	nopl   0x0(%rax)

00000000000040b0 <h8_span_close_publish>:
    40b0:	f3 0f 1e fa          	endbr64 
    40b4:	c6 47 4f 01          	movb   $0x1,0x4f(%rdi)
    40b8:	c3                   	ret    
    40b9:	0f 1f 80 00 00 00 00 	nopl   0x0(%rax)

00000000000040c0 <h8_span_wait_publishers_zero>:
    40c0:	f3 0f 1e fa          	endbr64 
    40c4:	53                   	push   %rbx
    40c5:	48 8d 5f 50          	lea    0x50(%rdi),%rbx
    40c9:	eb 0a                	jmp    40d5 <h8_span_wait_publishers_zero+0x15>
    40cb:	0f 1f 44 00 00       	nopl   0x0(%rax,%rax,1)
    40d0:	e8 6b d2 ff ff       	call   1340 <sched_yield@plt>
    40d5:	0f b7 03             	movzwl (%rbx),%eax
    40d8:	66 85 c0             	test   %ax,%ax
    40db:	75 f3                	jne    40d0 <h8_span_wait_publishers_zero+0x10>
    40dd:	5b                   	pop    %rbx
    40de:	c3                   	ret    
    40df:	90                   	nop

00000000000040e0 <h8_span_mark_orphan_quiescing>:
    40e0:	f3 0f 1e fa          	endbr64 
    40e4:	53                   	push   %rbx
    40e5:	48 89 fb             	mov    %rdi,%rbx
    40e8:	e8 c3 ff ff ff       	call   40b0 <h8_span_close_publish>
    40ed:	48 b8 ff ff 3f fe ff ff ff 01 	movabs $0x1fffffffe3fffff,%rax
    40f7:	c6 43 4e 01          	movb   $0x1,0x4e(%rbx)
    40fb:	48 8b 53 40          	mov    0x40(%rbx),%rdx
    40ff:	48 21 d0             	and    %rdx,%rax
    4102:	48 0d 00 00 40 00    	or     $0x400000,%rax
    4108:	48 89 43 40          	mov    %rax,0x40(%rbx)
    410c:	5b                   	pop    %rbx
    410d:	c3                   	ret    
    410e:	66 90                	xchg   %ax,%ax

0000000000004110 <h8_span_mark_orphan_ready>:
    4110:	f3 0f 1e fa          	endbr64 
    4114:	48 b8 ff ff 3f fe ff ff ff 01 	movabs $0x1fffffffe3fffff,%rax
    411e:	c6 47 4e 02          	movb   $0x2,0x4e(%rdi)
    4122:	48 8b 57 40          	mov    0x40(%rdi),%rdx
    4126:	48 21 d0             	and    %rdx,%rax
    4129:	48 0d 00 00 80 00    	or     $0x800000,%rax
    412f:	48 89 47 40          	mov    %rax,0x40(%rdi)
    4133:	c3                   	ret    
    4134:	66 66 2e 0f 1f 84 00 00 00 00 00 	data16 cs nopw 0x0(%rax,%rax,1)
    413f:	90                   	nop

0000000000004140 <h8_span_handoff>:
    4140:	f3 0f 1e fa          	endbr64 
    4144:	41 57                	push   %r15
    4146:	48 89 f0             	mov    %rsi,%rax
    4149:	41 56                	push   %r14
    414b:	48 c1 e8 20          	shr    $0x20,%rax
    414f:	41 55                	push   %r13
    4151:	41 89 c6             	mov    %eax,%r14d
    4154:	41 54                	push   %r12
    4156:	55                   	push   %rbp
    4157:	53                   	push   %rbx
    4158:	48 83 ec 48          	sub    $0x48,%rsp
    415c:	48 85 ff             	test   %rdi,%rdi
    415f:	41 0f 94 c4          	sete   %r12b
    4163:	48 85 c9             	test   %rcx,%rcx
    4166:	48 89 74 24 10       	mov    %rsi,0x10(%rsp)
    416b:	0f 94 c0             	sete   %al
    416e:	89 54 24 18          	mov    %edx,0x18(%rsp)
    4172:	41 08 c4             	or     %al,%r12b
    4175:	74 19                	je     4190 <h8_span_handoff+0x50>
    4177:	45 31 e4             	xor    %r12d,%r12d
    417a:	48 83 c4 48          	add    $0x48,%rsp
    417e:	44 89 e0             	mov    %r12d,%eax
    4181:	5b                   	pop    %rbx
    4182:	5d                   	pop    %rbp
    4183:	41 5c                	pop    %r12
    4185:	41 5d                	pop    %r13
    4187:	41 5e                	pop    %r14
    4189:	41 5f                	pop    %r15
    418b:	c3                   	ret    
    418c:	0f 1f 40 00          	nopl   0x0(%rax)
    4190:	48 89 fb             	mov    %rdi,%rbx
    4193:	48 89 cf             	mov    %rcx,%rdi
    4196:	41 89 d7             	mov    %edx,%r15d
    4199:	48 89 cd             	mov    %rcx,%rbp
    419c:	e8 7f 08 00 00       	call   4a20 <h8_owner_is_alive_and_open>
    41a1:	41 89 c5             	mov    %eax,%r13d
    41a4:	84 c0                	test   %al,%al
    41a6:	74 cf                	je     4177 <h8_span_handoff+0x37>
    41a8:	8b 45 14             	mov    0x14(%rbp),%eax
    41ab:	85 c0                	test   %eax,%eax
    41ad:	0f 84 2d 01 00 00    	je     42e0 <h8_span_handoff+0x1a0>
    41b3:	83 f8 01             	cmp    $0x1,%eax
    41b6:	75 c2                	jne    417a <h8_span_handoff+0x3a>
    41b8:	48 8b 43 40          	mov    0x40(%rbx),%rax
    41bc:	48 89 c1             	mov    %rax,%rcx
    41bf:	48 89 c6             	mov    %rax,%rsi
    41c2:	8b 7c 24 18          	mov    0x18(%rsp),%edi
    41c6:	48 8b 54 24 10       	mov    0x10(%rsp),%rdx
    41cb:	48 c1 e9 16          	shr    $0x16,%rcx
    41cf:	48 c1 ee 19          	shr    $0x19,%rsi
    41d3:	89 7c 24 3c          	mov    %edi,0x3c(%rsp)
    41d7:	89 c7                	mov    %eax,%edi
    41d9:	48 c1 e8 06          	shr    $0x6,%rax
    41dd:	83 e7 3f             	and    $0x3f,%edi
    41e0:	66 89 44 24 2a       	mov    %ax,0x2a(%rsp)
    41e5:	89 c8                	mov    %ecx,%eax
    41e7:	48 89 54 24 34       	mov    %rdx,0x34(%rsp)
    41ec:	40 88 7c 24 28       	mov    %dil,0x28(%rsp)
    41f1:	33 54 24 28          	xor    0x28(%rsp),%edx
    41f5:	81 e2 ff 00 ff ff    	and    $0xffff00ff,%edx
    41fb:	0f 94 c2             	sete   %dl
    41fe:	83 e0 07             	and    $0x7,%eax
    4201:	44 38 f0             	cmp    %r14b,%al
    4204:	0f 94 c0             	sete   %al
    4207:	84 c2                	test   %al,%dl
    4209:	0f 84 68 ff ff ff    	je     4177 <h8_span_handoff+0x37>
    420f:	41 39 f7             	cmp    %esi,%r15d
    4212:	0f 85 5f ff ff ff    	jne    4177 <h8_span_handoff+0x37>
    4218:	83 e1 05             	and    $0x5,%ecx
    421b:	0f 85 56 ff ff ff    	jne    4177 <h8_span_handoff+0x37>
    4221:	0f b7 43 50          	movzwl 0x50(%rbx),%eax
    4225:	66 85 c0             	test   %ax,%ax
    4228:	0f 85 49 ff ff ff    	jne    4177 <h8_span_handoff+0x37>
    422e:	48 89 df             	mov    %rbx,%rdi
    4231:	48 89 34 24          	mov    %rsi,(%rsp)
    4235:	e8 a6 0f 00 00       	call   51e0 <h8_span_pending_quiescent>
    423a:	48 8b 34 24          	mov    (%rsp),%rsi
    423e:	84 c0                	test   %al,%al
    4240:	41 89 c4             	mov    %eax,%r12d
    4243:	0f 84 2e ff ff ff    	je     4177 <h8_span_handoff+0x37>
    4249:	8b 55 0c             	mov    0xc(%rbp),%edx
    424c:	44 8b 7d 08          	mov    0x8(%rbp),%r15d
    4250:	8d 46 01             	lea    0x1(%rsi),%eax
    4253:	44 0f b7 f2          	movzwl %dx,%r14d
    4257:	41 0f b6 cf          	movzbl %r15b,%ecx
    425b:	45 0f b6 ff          	movzbl %r15b,%r15d
    425f:	49 c1 e6 06          	shl    $0x6,%r14
    4263:	49 09 ce             	or     %rcx,%r14
    4266:	89 c1                	mov    %eax,%ecx
    4268:	48 c1 e1 19          	shl    $0x19,%rcx
    426c:	49 09 ce             	or     %rcx,%r14
    426f:	4c 89 f1             	mov    %r14,%rcx
    4272:	48 81 c9 00 00 c0 00 	or     $0xc00000,%rcx
    4279:	48 89 4b 40          	mov    %rcx,0x40(%rbx)
    427d:	44 89 7b 48          	mov    %r15d,0x48(%rbx)
    4281:	66 89 53 4c          	mov    %dx,0x4c(%rbx)
    4285:	c6 43 4e 03          	movb   $0x3,0x4e(%rbx)
    4289:	89 43 68             	mov    %eax,0x68(%rbx)
    428c:	45 84 ed             	test   %r13b,%r13b
    428f:	74 5f                	je     42f0 <h8_span_handoff+0x1b0>
    4291:	48 89 de             	mov    %rbx,%rsi
    4294:	48 89 ef             	mov    %rbp,%rdi
    4297:	89 54 24 0c          	mov    %edx,0xc(%rsp)
    429b:	89 04 24             	mov    %eax,(%rsp)
    429e:	e8 cd 0c 00 00       	call   4f70 <h8_owner_add_orphan_span>
    42a3:	48 8d 0d d6 7d 00 00 	lea    0x7dd6(%rip),%rcx        # c080 <h8g>
    42aa:	f0 48 83 81 88 4e 00 00 01 	lock addq $0x1,0x4e88(%rcx)
    42b3:	8b 04 24             	mov    (%rsp),%eax
    42b6:	8b 54 24 0c          	mov    0xc(%rsp),%edx
    42ba:	4c 89 73 40          	mov    %r14,0x40(%rbx)
    42be:	44 89 7b 48          	mov    %r15d,0x48(%rbx)
    42c2:	66 89 53 4c          	mov    %dx,0x4c(%rbx)
    42c6:	c6 43 4e 00          	movb   $0x0,0x4e(%rbx)
    42ca:	89 43 68             	mov    %eax,0x68(%rbx)
    42cd:	c6 43 4f 00          	movb   $0x0,0x4f(%rbx)
    42d1:	e9 a4 fe ff ff       	jmp    417a <h8_span_handoff+0x3a>
    42d6:	66 2e 0f 1f 84 00 00 00 00 00 	cs nopw 0x0(%rax,%rax,1)
    42e0:	45 31 ed             	xor    %r13d,%r13d
    42e3:	e9 d0 fe ff ff       	jmp    41b8 <h8_span_handoff+0x78>
    42e8:	0f 1f 84 00 00 00 00 00 	nopl   0x0(%rax,%rax,1)
    42f0:	48 89 de             	mov    %rbx,%rsi
    42f3:	48 89 ef             	mov    %rbp,%rdi
    42f6:	89 54 24 0c          	mov    %edx,0xc(%rsp)
    42fa:	89 04 24             	mov    %eax,(%rsp)
    42fd:	e8 2e 0b 00 00       	call   4e30 <h8_owner_add_owned_span>
    4302:	8b 54 24 0c          	mov    0xc(%rsp),%edx
    4306:	8b 04 24             	mov    (%rsp),%eax
    4309:	eb af                	jmp    42ba <h8_span_handoff+0x17a>
    430b:	0f 1f 44 00 00       	nopl   0x0(%rax,%rax,1)

0000000000004310 <h8_orphan_adoption_dry_run>:
    4310:	f3 0f 1e fa          	endbr64 
    4314:	41 56                	push   %r14
    4316:	41 55                	push   %r13
    4318:	41 54                	push   %r12
    431a:	41 89 f4             	mov    %esi,%r12d
    431d:	55                   	push   %rbp
    431e:	53                   	push   %rbx
    431f:	48 89 fb             	mov    %rdi,%rbx
    4322:	48 83 ec 10          	sub    $0x10,%rsp
    4326:	e8 55 f8 ff ff       	call   3b80 <h8_orphan_owner>
    432b:	48 85 db             	test   %rbx,%rbx
    432e:	0f 94 c2             	sete   %dl
    4331:	48 39 d8             	cmp    %rbx,%rax
    4334:	48 89 c5             	mov    %rax,%rbp
    4337:	0f 94 c0             	sete   %al
    433a:	08 c2                	or     %al,%dl
    433c:	74 1a                	je     4358 <h8_orphan_adoption_dry_run+0x48>
    433e:	48 83 c4 10          	add    $0x10,%rsp
    4342:	45 31 ed             	xor    %r13d,%r13d
    4345:	5b                   	pop    %rbx
    4346:	44 89 e8             	mov    %r13d,%eax
    4349:	5d                   	pop    %rbp
    434a:	41 5c                	pop    %r12
    434c:	41 5d                	pop    %r13
    434e:	41 5e                	pop    %r14
    4350:	c3                   	ret    
    4351:	0f 1f 80 00 00 00 00 	nopl   0x0(%rax)
    4358:	48 8b 03             	mov    (%rbx),%rax
    435b:	41 89 d5             	mov    %edx,%r13d
    435e:	48 89 c2             	mov    %rax,%rdx
    4361:	48 c1 e8 12          	shr    $0x12,%rax
    4365:	48 c1 ea 10          	shr    $0x10,%rdx
    4369:	83 e0 01             	and    $0x1,%eax
    436c:	83 e2 03             	and    $0x3,%edx
    436f:	88 44 24 0d          	mov    %al,0xd(%rsp)
    4373:	88 54 24 0c          	mov    %dl,0xc(%rsp)
    4377:	66 83 7c 24 0c 00    	cmpw   $0x0,0xc(%rsp)
    437d:	75 bf                	jne    433e <h8_orphan_adoption_dry_run+0x2e>
    437f:	4c 8d b5 e0 00 00 00 	lea    0xe0(%rbp),%r14
    4386:	4c 89 f7             	mov    %r14,%rdi
    4389:	e8 d2 d0 ff ff       	call   1460 <pthread_mutex_lock@plt>
    438e:	4a 8b 9c e5 88 00 00 00 	mov    0x88(%rbp,%r12,8),%rbx
    4396:	48 85 db             	test   %rbx,%rbx
    4399:	75 1d                	jne    43b8 <h8_orphan_adoption_dry_run+0xa8>
    439b:	eb 42                	jmp    43df <h8_orphan_adoption_dry_run+0xcf>
    439d:	0f 1f 00             	nopl   (%rax)
    43a0:	48 8b 43 40          	mov    0x40(%rbx),%rax
    43a4:	48 c1 e8 16          	shr    $0x16,%rax
    43a8:	a8 05                	test   $0x5,%al
    43aa:	74 54                	je     4400 <h8_orphan_adoption_dry_run+0xf0>
    43ac:	48 8b 9b a8 00 00 00 	mov    0xa8(%rbx),%rbx
    43b3:	48 85 db             	test   %rbx,%rbx
    43b6:	74 27                	je     43df <h8_orphan_adoption_dry_run+0xcf>
    43b8:	8b 83 84 00 00 00    	mov    0x84(%rbx),%eax
    43be:	3d ff ff ff 3f       	cmp    $0x3fffffff,%eax
    43c3:	75 db                	jne    43a0 <h8_orphan_adoption_dry_run+0x90>
    43c5:	8b 93 80 00 00 00    	mov    0x80(%rbx),%edx
    43cb:	0f b7 43 0a          	movzwl 0xa(%rbx),%eax
    43cf:	39 c2                	cmp    %eax,%edx
    43d1:	72 cd                	jb     43a0 <h8_orphan_adoption_dry_run+0x90>
    43d3:	48 8b 9b a8 00 00 00 	mov    0xa8(%rbx),%rbx
    43da:	48 85 db             	test   %rbx,%rbx
    43dd:	75 d9                	jne    43b8 <h8_orphan_adoption_dry_run+0xa8>
    43df:	4c 89 f7             	mov    %r14,%rdi
    43e2:	e8 a9 cf ff ff       	call   1390 <pthread_mutex_unlock@plt>
    43e7:	48 83 c4 10          	add    $0x10,%rsp
    43eb:	44 89 e8             	mov    %r13d,%eax
    43ee:	5b                   	pop    %rbx
    43ef:	5d                   	pop    %rbp
    43f0:	41 5c                	pop    %r12
    43f2:	41 5d                	pop    %r13
    43f4:	41 5e                	pop    %r14
    43f6:	c3                   	ret    
    43f7:	66 0f 1f 84 00 00 00 00 00 	nopw   0x0(%rax,%rax,1)
    4400:	0f b7 43 50          	movzwl 0x50(%rbx),%eax
    4404:	66 85 c0             	test   %ax,%ax
    4407:	74 08                	je     4411 <h8_orphan_adoption_dry_run+0x101>
    4409:	41 bd 01 00 00 00    	mov    $0x1,%r13d
    440f:	eb ce                	jmp    43df <h8_orphan_adoption_dry_run+0xcf>
    4411:	48 89 df             	mov    %rbx,%rdi
    4414:	e8 c7 0d 00 00       	call   51e0 <h8_span_pending_quiescent>
    4419:	84 c0                	test   %al,%al
    441b:	74 ec                	je     4409 <h8_orphan_adoption_dry_run+0xf9>
    441d:	0f b6 43 4f          	movzbl 0x4f(%rbx),%eax
    4421:	eb e6                	jmp    4409 <h8_orphan_adoption_dry_run+0xf9>
    4423:	66 66 2e 0f 1f 84 00 00 00 00 00 	data16 cs nopw 0x0(%rax,%rax,1)
    442e:	66 90                	xchg   %ax,%ax

0000000000004430 <h8_orphan_adopt_span>:
    4430:	f3 0f 1e fa          	endbr64 
    4434:	41 57                	push   %r15
    4436:	41 89 f7             	mov    %esi,%r15d
    4439:	41 56                	push   %r14
    443b:	41 55                	push   %r13
    443d:	49 89 fd             	mov    %rdi,%r13
    4440:	41 54                	push   %r12
    4442:	55                   	push   %rbp
    4443:	53                   	push   %rbx
    4444:	48 83 ec 28          	sub    $0x28,%rsp
    4448:	e8 33 f7 ff ff       	call   3b80 <h8_orphan_owner>
    444d:	4d 85 ed             	test   %r13,%r13
    4450:	0f 84 b6 01 00 00    	je     460c <h8_orphan_adopt_span+0x1dc>
    4456:	48 89 c3             	mov    %rax,%rbx
    4459:	4c 39 e8             	cmp    %r13,%rax
    445c:	0f 84 aa 01 00 00    	je     460c <h8_orphan_adopt_span+0x1dc>
    4462:	41 0f b7 75 0c       	movzwl 0xc(%r13),%esi
    4467:	4c 89 ef             	mov    %r13,%rdi
    446a:	e8 e1 05 00 00       	call   4a50 <h8_owner_lifecycle_enter>
    446f:	84 c0                	test   %al,%al
    4471:	0f 84 95 01 00 00    	je     460c <h8_orphan_adopt_span+0x1dc>
    4477:	49 8d 47 10          	lea    0x10(%r15),%rax
    447b:	48 8d ab e0 00 00 00 	lea    0xe0(%rbx),%rbp
    4482:	48 89 44 24 08       	mov    %rax,0x8(%rsp)
    4487:	66 0f 1f 84 00 00 00 00 00 	nopw   0x0(%rax,%rax,1)
    4490:	48 89 ef             	mov    %rbp,%rdi
    4493:	e8 c8 cf ff ff       	call   1460 <pthread_mutex_lock@plt>
    4498:	48 8b 44 24 08       	mov    0x8(%rsp),%rax
    449d:	4c 8b 7c c3 08       	mov    0x8(%rbx,%rax,8),%r15
    44a2:	4d 85 ff             	test   %r15,%r15
    44a5:	0f 84 51 01 00 00    	je     45fc <h8_orphan_adopt_span+0x1cc>
    44ab:	41 8b 87 84 00 00 00 	mov    0x84(%r15),%eax
    44b2:	3d ff ff ff 3f       	cmp    $0x3fffffff,%eax
    44b7:	0f 84 1b 01 00 00    	je     45d8 <h8_orphan_adopt_span+0x1a8>
    44bd:	49 8b 47 40          	mov    0x40(%r15),%rax
    44c1:	4d 8d 67 40          	lea    0x40(%r15),%r12
    44c5:	48 c1 e8 16          	shr    $0x16,%rax
    44c9:	89 c2                	mov    %eax,%edx
    44cb:	83 e2 07             	and    $0x7,%edx
    44ce:	0f 84 84 03 00 00    	je     4858 <h8_orphan_adopt_span+0x428>
    44d4:	44 0f b6 f2          	movzbl %dl,%r14d
    44d8:	80 fa 02             	cmp    $0x2,%dl
    44db:	0f 84 8f 03 00 00    	je     4870 <h8_orphan_adopt_span+0x440>
    44e1:	83 e0 05             	and    $0x5,%eax
    44e4:	3c 01                	cmp    $0x1,%al
    44e6:	0f 84 00 01 00 00    	je     45ec <h8_orphan_adopt_span+0x1bc>
    44ec:	48 89 ef             	mov    %rbp,%rdi
    44ef:	e8 9c ce ff ff       	call   1390 <pthread_mutex_unlock@plt>
    44f4:	4c 89 ff             	mov    %r15,%rdi
    44f7:	e8 c4 fb ff ff       	call   40c0 <h8_span_wait_publishers_zero>
    44fc:	48 89 df             	mov    %rbx,%rdi
    44ff:	e8 bc 15 00 00       	call   5ac0 <h8_collect_owner_pending>
    4504:	4c 89 fe             	mov    %r15,%rsi
    4507:	48 89 df             	mov    %rbx,%rdi
    450a:	e8 b1 0d 00 00       	call   52c0 <h8_span_repair_pending_mask>
    450f:	84 c0                	test   %al,%al
    4511:	0f 85 69 01 00 00    	jne    4680 <h8_orphan_adopt_span+0x250>
    4517:	4c 89 ff             	mov    %r15,%rdi
    451a:	e8 11 16 00 00       	call   5b30 <h8_slot_allocated_count_quiescent>
    451f:	48 85 c0             	test   %rax,%rax
    4522:	0f 84 71 01 00 00    	je     4699 <h8_orphan_adopt_span+0x269>
    4528:	49 8d 47 50          	lea    0x50(%r15),%rax
    452c:	48 89 44 24 10       	mov    %rax,0x10(%rsp)
    4531:	41 0f b7 47 50       	movzwl 0x50(%r15),%eax
    4536:	45 85 f6             	test   %r14d,%r14d
    4539:	0f 85 e9 00 00 00    	jne    4628 <h8_orphan_adopt_span+0x1f8>
    453f:	66 85 c0             	test   %ax,%ax
    4542:	0f 85 48 ff ff ff    	jne    4490 <h8_orphan_adopt_span+0x60>
    4548:	4c 89 ff             	mov    %r15,%rdi
    454b:	e8 90 0c 00 00       	call   51e0 <h8_span_pending_quiescent>
    4550:	84 c0                	test   %al,%al
    4552:	0f 84 38 ff ff ff    	je     4490 <h8_orphan_adopt_span+0x60>
    4558:	41 0f b6 47 4f       	movzbl 0x4f(%r15),%eax
    455d:	84 c0                	test   %al,%al
    455f:	0f 84 2b ff ff ff    	je     4490 <h8_orphan_adopt_span+0x60>
    4565:	4c 89 ff             	mov    %r15,%rdi
    4568:	4d 8d b5 e0 00 00 00 	lea    0xe0(%r13),%r14
    456f:	e8 9c fb ff ff       	call   4110 <h8_span_mark_orphan_ready>
    4574:	41 8b 45 08          	mov    0x8(%r13),%eax
    4578:	39 43 08             	cmp    %eax,0x8(%rbx)
    457b:	0f 83 e7 00 00 00    	jae    4668 <h8_orphan_adopt_span+0x238>
    4581:	48 89 ef             	mov    %rbp,%rdi
    4584:	e8 d7 ce ff ff       	call   1460 <pthread_mutex_lock@plt>
    4589:	4c 89 f7             	mov    %r14,%rdi
    458c:	e8 cf ce ff ff       	call   1460 <pthread_mutex_lock@plt>
    4591:	49 8b 14 24          	mov    (%r12),%rdx
    4595:	89 d0                	mov    %edx,%eax
    4597:	83 e0 3f             	and    $0x3f,%eax
    459a:	3b 43 08             	cmp    0x8(%rbx),%eax
    459d:	75 21                	jne    45c0 <h8_orphan_adopt_span+0x190>
    459f:	48 89 d0             	mov    %rdx,%rax
    45a2:	48 c1 e8 16          	shr    $0x16,%rax
    45a6:	83 e0 07             	and    $0x7,%eax
    45a9:	3c 02                	cmp    $0x2,%al
    45ab:	75 13                	jne    45c0 <h8_orphan_adopt_span+0x190>
    45ad:	48 89 d0             	mov    %rdx,%rax
    45b0:	48 c1 e8 06          	shr    $0x6,%rax
    45b4:	0f b7 c0             	movzwl %ax,%eax
    45b7:	3b 43 0c             	cmp    0xc(%rbx),%eax
    45ba:	0f 84 00 01 00 00    	je     46c0 <h8_orphan_adopt_span+0x290>
    45c0:	48 89 ef             	mov    %rbp,%rdi
    45c3:	e8 c8 cd ff ff       	call   1390 <pthread_mutex_unlock@plt>
    45c8:	4c 89 f7             	mov    %r14,%rdi
    45cb:	e8 c0 cd ff ff       	call   1390 <pthread_mutex_unlock@plt>
    45d0:	e9 bb fe ff ff       	jmp    4490 <h8_orphan_adopt_span+0x60>
    45d5:	0f 1f 00             	nopl   (%rax)
    45d8:	41 8b 97 80 00 00 00 	mov    0x80(%r15),%edx
    45df:	41 0f b7 47 0a       	movzwl 0xa(%r15),%eax
    45e4:	39 c2                	cmp    %eax,%edx
    45e6:	0f 82 d1 fe ff ff    	jb     44bd <h8_orphan_adopt_span+0x8d>
    45ec:	4d 8b bf a8 00 00 00 	mov    0xa8(%r15),%r15
    45f3:	4d 85 ff             	test   %r15,%r15
    45f6:	0f 85 af fe ff ff    	jne    44ab <h8_orphan_adopt_span+0x7b>
    45fc:	48 89 ef             	mov    %rbp,%rdi
    45ff:	e8 8c cd ff ff       	call   1390 <pthread_mutex_unlock@plt>
    4604:	4c 89 ef             	mov    %r13,%rdi
    4607:	e8 f4 04 00 00       	call   4b00 <h8_owner_lifecycle_exit>
    460c:	45 31 ff             	xor    %r15d,%r15d
    460f:	48 83 c4 28          	add    $0x28,%rsp
    4613:	4c 89 f8             	mov    %r15,%rax
    4616:	5b                   	pop    %rbx
    4617:	5d                   	pop    %rbp
    4618:	41 5c                	pop    %r12
    461a:	41 5d                	pop    %r13
    461c:	41 5e                	pop    %r14
    461e:	41 5f                	pop    %r15
    4620:	c3                   	ret    
    4621:	0f 1f 80 00 00 00 00 	nopl   0x0(%rax)
    4628:	66 85 c0             	test   %ax,%ax
    462b:	0f 85 5f fe ff ff    	jne    4490 <h8_orphan_adopt_span+0x60>
    4631:	4c 89 ff             	mov    %r15,%rdi
    4634:	e8 a7 0b 00 00       	call   51e0 <h8_span_pending_quiescent>
    4639:	84 c0                	test   %al,%al
    463b:	0f 84 4f fe ff ff    	je     4490 <h8_orphan_adopt_span+0x60>
    4641:	41 0f b6 47 4f       	movzbl 0x4f(%r15),%eax
    4646:	84 c0                	test   %al,%al
    4648:	0f 84 42 fe ff ff    	je     4490 <h8_orphan_adopt_span+0x60>
    464e:	41 8b 45 08          	mov    0x8(%r13),%eax
    4652:	4d 8d b5 e0 00 00 00 	lea    0xe0(%r13),%r14
    4659:	39 43 08             	cmp    %eax,0x8(%rbx)
    465c:	0f 82 1f ff ff ff    	jb     4581 <h8_orphan_adopt_span+0x151>
    4662:	66 0f 1f 44 00 00    	nopw   0x0(%rax,%rax,1)
    4668:	4c 89 f7             	mov    %r14,%rdi
    466b:	e8 f0 cd ff ff       	call   1460 <pthread_mutex_lock@plt>
    4670:	48 89 ef             	mov    %rbp,%rdi
    4673:	e8 e8 cd ff ff       	call   1460 <pthread_mutex_lock@plt>
    4678:	e9 14 ff ff ff       	jmp    4591 <h8_orphan_adopt_span+0x161>
    467d:	0f 1f 00             	nopl   (%rax)
    4680:	48 89 df             	mov    %rbx,%rdi
    4683:	e8 38 14 00 00       	call   5ac0 <h8_collect_owner_pending>
    4688:	4c 89 ff             	mov    %r15,%rdi
    468b:	e8 a0 14 00 00       	call   5b30 <h8_slot_allocated_count_quiescent>
    4690:	48 85 c0             	test   %rax,%rax
    4693:	0f 85 8f fe ff ff    	jne    4528 <h8_orphan_adopt_span+0xf8>
    4699:	4c 89 ff             	mov    %r15,%rdi
    469c:	e8 6f fa ff ff       	call   4110 <h8_span_mark_orphan_ready>
    46a1:	4c 89 ef             	mov    %r13,%rdi
    46a4:	41 c6 47 4f 00       	movb   $0x0,0x4f(%r15)
    46a9:	45 31 ff             	xor    %r15d,%r15d
    46ac:	e8 4f 04 00 00       	call   4b00 <h8_owner_lifecycle_exit>
    46b1:	e9 59 ff ff ff       	jmp    460f <h8_orphan_adopt_span+0x1df>
    46b6:	66 2e 0f 1f 84 00 00 00 00 00 	cs nopw 0x0(%rax,%rax,1)
    46c0:	48 8b 44 24 10       	mov    0x10(%rsp),%rax
    46c5:	0f b7 00             	movzwl (%rax),%eax
    46c8:	66 85 c0             	test   %ax,%ax
    46cb:	0f 85 ef fe ff ff    	jne    45c0 <h8_orphan_adopt_span+0x190>
    46d1:	4c 89 ff             	mov    %r15,%rdi
    46d4:	48 89 54 24 18       	mov    %rdx,0x18(%rsp)
    46d9:	e8 02 0b 00 00       	call   51e0 <h8_span_pending_quiescent>
    46de:	48 8b 54 24 18       	mov    0x18(%rsp),%rdx
    46e3:	84 c0                	test   %al,%al
    46e5:	0f 84 d5 fe ff ff    	je     45c0 <h8_orphan_adopt_span+0x190>
    46eb:	41 0f b6 47 4f       	movzbl 0x4f(%r15),%eax
    46f0:	49 8d 77 4f          	lea    0x4f(%r15),%rsi
    46f4:	84 c0                	test   %al,%al
    46f6:	0f 84 c4 fe ff ff    	je     45c0 <h8_orphan_adopt_span+0x190>
    46fc:	48 8b 83 80 00 00 00 	mov    0x80(%rbx),%rax
    4703:	48 85 c0             	test   %rax,%rax
    4706:	74 30                	je     4738 <h8_orphan_adopt_span+0x308>
    4708:	48 8d 8b 80 00 00 00 	lea    0x80(%rbx),%rcx
    470f:	49 39 c7             	cmp    %rax,%r15
    4712:	75 15                	jne    4729 <h8_orphan_adopt_span+0x2f9>
    4714:	e9 69 01 00 00       	jmp    4882 <h8_orphan_adopt_span+0x452>
    4719:	0f 1f 80 00 00 00 00 	nopl   0x0(%rax)
    4720:	49 39 c7             	cmp    %rax,%r15
    4723:	0f 84 52 01 00 00    	je     487b <h8_orphan_adopt_span+0x44b>
    4729:	48 89 c1             	mov    %rax,%rcx
    472c:	48 8b 80 a0 00 00 00 	mov    0xa0(%rax),%rax
    4733:	48 85 c0             	test   %rax,%rax
    4736:	75 e8                	jne    4720 <h8_orphan_adopt_span+0x2f0>
    4738:	41 0f b7 47 08       	movzwl 0x8(%r15),%eax
    473d:	48 89 c1             	mov    %rax,%rcx
    4740:	48 8b 84 c3 88 00 00 00 	mov    0x88(%rbx,%rax,8),%rax
    4748:	48 85 c0             	test   %rax,%rax
    474b:	74 2b                	je     4778 <h8_orphan_adopt_span+0x348>
    474d:	49 39 c7             	cmp    %rax,%r15
    4750:	75 17                	jne    4769 <h8_orphan_adopt_span+0x339>
    4752:	e9 5b 01 00 00       	jmp    48b2 <h8_orphan_adopt_span+0x482>
    4757:	66 0f 1f 84 00 00 00 00 00 	nopw   0x0(%rax,%rax,1)
    4760:	4c 39 f8             	cmp    %r15,%rax
    4763:	0f 84 28 01 00 00    	je     4891 <h8_orphan_adopt_span+0x461>
    4769:	48 89 c1             	mov    %rax,%rcx
    476c:	48 8b 80 a8 00 00 00 	mov    0xa8(%rax),%rax
    4773:	48 85 c0             	test   %rax,%rax
    4776:	75 e8                	jne    4760 <h8_orphan_adopt_span+0x330>
    4778:	41 8b 7d 0c          	mov    0xc(%r13),%edi
    477c:	45 8b 4d 08          	mov    0x8(%r13),%r9d
    4780:	48 c1 ea 19          	shr    $0x19,%rdx
    4784:	49 c7 87 a0 00 00 00 00 00 00 00 	movq   $0x0,0xa0(%r15)
    478f:	49 c7 87 a8 00 00 00 00 00 00 00 	movq   $0x0,0xa8(%r15)
    479a:	8d 4a 01             	lea    0x1(%rdx),%ecx
    479d:	0f b7 c7             	movzwl %di,%eax
    47a0:	41 0f b6 d1          	movzbl %r9b,%edx
    47a4:	48 c1 e0 06          	shl    $0x6,%rax
    47a8:	48 09 d0             	or     %rdx,%rax
    47ab:	89 ca                	mov    %ecx,%edx
    47ad:	48 c1 e2 19          	shl    $0x19,%rdx
    47b1:	48 09 d0             	or     %rdx,%rax
    47b4:	48 89 c2             	mov    %rax,%rdx
    47b7:	48 81 ca 00 00 c0 00 	or     $0xc00000,%rdx
    47be:	49 89 14 24          	mov    %rdx,(%r12)
    47c2:	41 0f b6 d1          	movzbl %r9b,%edx
    47c6:	66 41 89 7f 4c       	mov    %di,0x4c(%r15)
    47cb:	41 89 57 48          	mov    %edx,0x48(%r15)
    47cf:	41 c6 47 4e 03       	movb   $0x3,0x4e(%r15)
    47d4:	41 89 4f 68          	mov    %ecx,0x68(%r15)
    47d8:	4d 8b 4d 78          	mov    0x78(%r13),%r9
    47dc:	4d 89 8f 88 00 00 00 	mov    %r9,0x88(%r15)
    47e3:	45 0f b7 4f 08       	movzwl 0x8(%r15),%r9d
    47e8:	4d 89 7d 78          	mov    %r15,0x78(%r13)
    47ec:	49 83 c1 02          	add    $0x2,%r9
    47f0:	4f 8b 54 cd 08       	mov    0x8(%r13,%r9,8),%r10
    47f5:	4d 89 97 90 00 00 00 	mov    %r10,0x90(%r15)
    47fc:	4f 89 7c cd 08       	mov    %r15,0x8(%r13,%r9,8)
    4801:	48 8b 5c 24 10       	mov    0x10(%rsp),%rbx
    4806:	66 c7 03 00 00       	movw   $0x0,(%rbx)
    480b:	49 89 04 24          	mov    %rax,(%r12)
    480f:	41 89 57 48          	mov    %edx,0x48(%r15)
    4813:	66 41 89 7f 4c       	mov    %di,0x4c(%r15)
    4818:	41 c6 47 4e 00       	movb   $0x0,0x4e(%r15)
    481d:	41 89 4f 68          	mov    %ecx,0x68(%r15)
    4821:	c6 06 00             	movb   $0x0,(%rsi)
    4824:	48 8d 05 55 78 00 00 	lea    0x7855(%rip),%rax        # c080 <h8g>
    482b:	48 8b 90 88 4e 00 00 	mov    0x4e88(%rax),%rdx
    4832:	48 85 d2             	test   %rdx,%rdx
    4835:	75 70                	jne    48a7 <h8_orphan_adopt_span+0x477>
    4837:	48 89 ef             	mov    %rbp,%rdi
    483a:	e8 51 cb ff ff       	call   1390 <pthread_mutex_unlock@plt>
    483f:	4c 89 f7             	mov    %r14,%rdi
    4842:	e8 49 cb ff ff       	call   1390 <pthread_mutex_unlock@plt>
    4847:	4c 89 ef             	mov    %r13,%rdi
    484a:	e8 b1 02 00 00       	call   4b00 <h8_owner_lifecycle_exit>
    484f:	e9 bb fd ff ff       	jmp    460f <h8_orphan_adopt_span+0x1df>
    4854:	0f 1f 40 00          	nopl   0x0(%rax)
    4858:	4c 89 ff             	mov    %r15,%rdi
    485b:	45 31 f6             	xor    %r14d,%r14d
    485e:	e8 7d f8 ff ff       	call   40e0 <h8_span_mark_orphan_quiescing>
    4863:	e9 84 fc ff ff       	jmp    44ec <h8_orphan_adopt_span+0xbc>
    4868:	0f 1f 84 00 00 00 00 00 	nopl   0x0(%rax,%rax,1)
    4870:	41 be 02 00 00 00    	mov    $0x2,%r14d
    4876:	e9 71 fc ff ff       	jmp    44ec <h8_orphan_adopt_span+0xbc>
    487b:	48 81 c1 a0 00 00 00 	add    $0xa0,%rcx
    4882:	49 8b 87 a0 00 00 00 	mov    0xa0(%r15),%rax
    4889:	48 89 01             	mov    %rax,(%rcx)
    488c:	e9 a7 fe ff ff       	jmp    4738 <h8_orphan_adopt_span+0x308>
    4891:	48 81 c1 a8 00 00 00 	add    $0xa8,%rcx
    4898:	49 8b 87 a8 00 00 00 	mov    0xa8(%r15),%rax
    489f:	48 89 01             	mov    %rax,(%rcx)
    48a2:	e9 d1 fe ff ff       	jmp    4778 <h8_orphan_adopt_span+0x348>
    48a7:	f0 48 83 a8 88 4e 00 00 01 	lock subq $0x1,0x4e88(%rax)
    48b0:	eb 85                	jmp    4837 <h8_orphan_adopt_span+0x407>
    48b2:	8d 41 11             	lea    0x11(%rcx),%eax
    48b5:	48 98                	cltq   
    48b7:	48 8d 0c c3          	lea    (%rbx,%rax,8),%rcx
    48bb:	eb db                	jmp    4898 <h8_orphan_adopt_span+0x468>
    48bd:	0f 1f 00             	nopl   (%rax)

00000000000048c0 <h8_owner_free_stack_push>:
    48c0:	f3 0f 1e fa          	endbr64 
    48c4:	41 54                	push   %r12
    48c6:	55                   	push   %rbp
    48c7:	48 8d 2d b2 77 00 00 	lea    0x77b2(%rip),%rbp        # c080 <h8g>
    48ce:	53                   	push   %rbx
    48cf:	48 89 fb             	mov    %rdi,%rbx
    48d2:	4c 8d a5 48 4e 00 00 	lea    0x4e48(%rbp),%r12
    48d9:	4c 89 e7             	mov    %r12,%rdi
    48dc:	e8 7f cb ff ff       	call   1460 <pthread_mutex_lock@plt>
    48e1:	48 8b 85 40 4e 00 00 	mov    0x4e40(%rbp),%rax
    48e8:	4c 89 e7             	mov    %r12,%rdi
    48eb:	48 89 83 30 01 00 00 	mov    %rax,0x130(%rbx)
    48f2:	48 89 9d 40 4e 00 00 	mov    %rbx,0x4e40(%rbp)
    48f9:	5b                   	pop    %rbx
    48fa:	5d                   	pop    %rbp
    48fb:	41 5c                	pop    %r12
    48fd:	e9 8e ca ff ff       	jmp    1390 <pthread_mutex_unlock@plt>
    4902:	66 66 2e 0f 1f 84 00 00 00 00 00 	data16 cs nopw 0x0(%rax,%rax,1)
    490d:	0f 1f 00             	nopl   (%rax)

0000000000004910 <h8_owner_mark_alive>:
    4910:	f3 0f 1e fa          	endbr64 
    4914:	66 0f ef c0          	pxor   %xmm0,%xmm0
    4918:	88 4f 10             	mov    %cl,0x10(%rdi)
    491b:	0f b7 c2             	movzwl %dx,%eax
    491e:	0f b6 c9             	movzbl %cl,%ecx
    4921:	89 77 08             	mov    %esi,0x8(%rdi)
    4924:	0f b7 d2             	movzwl %dx,%edx
    4927:	89 47 0c             	mov    %eax,0xc(%rdi)
    492a:	89 4f 14             	mov    %ecx,0x14(%rdi)
    492d:	48 c7 47 58 00 00 00 00 	movq   $0x0,0x58(%rdi)
    4935:	0f 11 47 18          	movups %xmm0,0x18(%rdi)
    4939:	0f 11 47 28          	movups %xmm0,0x28(%rdi)
    493d:	0f 11 47 38          	movups %xmm0,0x38(%rdi)
    4941:	0f 11 47 48          	movups %xmm0,0x48(%rdi)
    4945:	48 c7 47 60 00 00 00 00 	movq   $0x0,0x60(%rdi)
    494d:	48 c7 47 68 00 00 00 00 	movq   $0x0,0x68(%rdi)
    4955:	48 c7 47 70 00 00 00 00 	movq   $0x0,0x70(%rdi)
    495d:	48 c7 47 78 00 00 00 00 	movq   $0x0,0x78(%rdi)
    4965:	48 c7 87 80 00 00 00 00 00 00 00 	movq   $0x0,0x80(%rdi)
    4970:	48 c7 87 d0 00 00 00 00 00 00 00 	movq   $0x0,0xd0(%rdi)
    497b:	48 c7 87 d8 00 00 00 00 00 00 00 	movq   $0x0,0xd8(%rdi)
    4986:	48 c7 87 c8 00 00 00 00 00 00 00 	movq   $0x0,0xc8(%rdi)
    4991:	0f 11 87 88 00 00 00 	movups %xmm0,0x88(%rdi)
    4998:	0f 11 87 98 00 00 00 	movups %xmm0,0x98(%rdi)
    499f:	0f 11 87 a8 00 00 00 	movups %xmm0,0xa8(%rdi)
    49a6:	0f 11 87 b8 00 00 00 	movups %xmm0,0xb8(%rdi)
    49ad:	48 89 17             	mov    %rdx,(%rdi)
    49b0:	c3                   	ret    
    49b1:	66 66 2e 0f 1f 84 00 00 00 00 00 	data16 cs nopw 0x0(%rax,%rax,1)
    49bc:	0f 1f 40 00          	nopl   0x0(%rax)

00000000000049c0 <h8_owner_mark_dying>:
    49c0:	f3 0f 1e fa          	endbr64 
    49c4:	48 b9 ff ff f8 ff 07 00 00 00 	movabs $0x7fff8ffff,%rcx
    49ce:	48 8b 07             	mov    (%rdi),%rax
    49d1:	48 89 c2             	mov    %rax,%rdx
    49d4:	48 21 ca             	and    %rcx,%rdx
    49d7:	48 81 ca 00 00 05 00 	or     $0x50000,%rdx
    49de:	f0 48 0f b1 17       	lock cmpxchg %rdx,(%rdi)
    49e3:	75 ec                	jne    49d1 <h8_owner_mark_dying+0x11>
    49e5:	c3                   	ret    
    49e6:	66 2e 0f 1f 84 00 00 00 00 00 	cs nopw 0x0(%rax,%rax,1)

00000000000049f0 <h8_owner_mark_dead>:
    49f0:	f3 0f 1e fa          	endbr64 
    49f4:	48 b9 ff ff f8 ff 07 00 00 00 	movabs $0x7fff8ffff,%rcx
    49fe:	48 8b 07             	mov    (%rdi),%rax
    4a01:	48 89 c2             	mov    %rax,%rdx
    4a04:	48 21 ca             	and    %rcx,%rdx
    4a07:	48 81 ca 00 00 06 00 	or     $0x60000,%rdx
    4a0e:	f0 48 0f b1 17       	lock cmpxchg %rdx,(%rdi)
    4a13:	75 ec                	jne    4a01 <h8_owner_mark_dead+0x11>
    4a15:	c3                   	ret    
    4a16:	66 2e 0f 1f 84 00 00 00 00 00 	cs nopw 0x0(%rax,%rax,1)

0000000000004a20 <h8_owner_is_alive_and_open>:
    4a20:	f3 0f 1e fa          	endbr64 
    4a24:	48 8b 07             	mov    (%rdi),%rax
    4a27:	48 89 c2             	mov    %rax,%rdx
    4a2a:	48 c1 e8 12          	shr    $0x12,%rax
    4a2e:	48 c1 ea 10          	shr    $0x10,%rdx
    4a32:	83 e0 01             	and    $0x1,%eax
    4a35:	83 e2 03             	and    $0x3,%edx
    4a38:	88 44 24 fd          	mov    %al,-0x3(%rsp)
    4a3c:	88 54 24 fc          	mov    %dl,-0x4(%rsp)
    4a40:	66 83 7c 24 fc 00    	cmpw   $0x0,-0x4(%rsp)
    4a46:	0f 94 c0             	sete   %al
    4a49:	c3                   	ret    
    4a4a:	66 0f 1f 44 00 00    	nopw   0x0(%rax,%rax,1)

0000000000004a50 <h8_owner_lifecycle_enter>:
    4a50:	f3 0f 1e fa          	endbr64 
    4a54:	44 0f b6 47 10       	movzbl 0x10(%rdi),%r8d
    4a59:	48 89 f9             	mov    %rdi,%rcx
    4a5c:	45 84 c0             	test   %r8b,%r8b
    4a5f:	74 0f                	je     4a70 <h8_owner_lifecycle_enter+0x20>
    4a61:	b8 01 00 00 00       	mov    $0x1,%eax
    4a66:	c3                   	ret    
    4a67:	66 0f 1f 84 00 00 00 00 00 	nopw   0x0(%rax,%rax,1)
    4a70:	48 83 ec 18          	sub    $0x18,%rsp
    4a74:	48 8b 01             	mov    (%rcx),%rax
    4a77:	89 f7                	mov    %esi,%edi
    4a79:	48 89 c2             	mov    %rax,%rdx
    4a7c:	48 89 c6             	mov    %rax,%rsi
    4a7f:	49 89 c1             	mov    %rax,%r9
    4a82:	48 c1 ea 10          	shr    $0x10,%rdx
    4a86:	48 c1 ee 12          	shr    $0x12,%rsi
    4a8a:	83 e2 03             	and    $0x3,%edx
    4a8d:	83 e6 01             	and    $0x1,%esi
    4a90:	49 c1 e9 13          	shr    $0x13,%r9
    4a94:	66 39 c7             	cmp    %ax,%di
    4a97:	75 50                	jne    4ae9 <h8_owner_lifecycle_enter+0x99>
    4a99:	88 54 24 0c          	mov    %dl,0xc(%rsp)
    4a9d:	40 88 74 24 0d       	mov    %sil,0xd(%rsp)
    4aa2:	66 83 7c 24 0c 00    	cmpw   $0x0,0xc(%rsp)
    4aa8:	75 3f                	jne    4ae9 <h8_owner_lifecycle_enter+0x99>
    4aaa:	66 41 83 f9 ff       	cmp    $0xffff,%r9w
    4aaf:	0f 84 d0 c9 ff ff    	je     1485 <h8_owner_lifecycle_enter.cold>
    4ab5:	0f b6 d2             	movzbl %dl,%edx
    4ab8:	40 0f b6 f6          	movzbl %sil,%esi
    4abc:	41 83 c1 01          	add    $0x1,%r9d
    4ac0:	48 c1 e6 12          	shl    $0x12,%rsi
    4ac4:	48 c1 e2 10          	shl    $0x10,%rdx
    4ac8:	45 0f b7 c9          	movzwl %r9w,%r9d
    4acc:	48 09 f2             	or     %rsi,%rdx
    4acf:	0f b7 f0             	movzwl %ax,%esi
    4ad2:	49 c1 e1 13          	shl    $0x13,%r9
    4ad6:	48 09 f2             	or     %rsi,%rdx
    4ad9:	4c 09 ca             	or     %r9,%rdx
    4adc:	f0 48 0f b1 11       	lock cmpxchg %rdx,(%rcx)
    4ae1:	75 96                	jne    4a79 <h8_owner_lifecycle_enter+0x29>
    4ae3:	41 b8 01 00 00 00    	mov    $0x1,%r8d
    4ae9:	44 89 c0             	mov    %r8d,%eax
    4aec:	48 83 c4 18          	add    $0x18,%rsp
    4af0:	c3                   	ret    
    4af1:	66 66 2e 0f 1f 84 00 00 00 00 00 	data16 cs nopw 0x0(%rax,%rax,1)
    4afc:	0f 1f 40 00          	nopl   0x0(%rax)

0000000000004b00 <h8_owner_lifecycle_exit>:
    4b00:	f3 0f 1e fa          	endbr64 
    4b04:	80 7f 10 00          	cmpb   $0x0,0x10(%rdi)
    4b08:	74 06                	je     4b10 <h8_owner_lifecycle_exit+0x10>
    4b0a:	c3                   	ret    
    4b0b:	0f 1f 44 00 00       	nopl   0x0(%rax,%rax,1)
    4b10:	48 8b 07             	mov    (%rdi),%rax
    4b13:	48 89 f9             	mov    %rdi,%rcx
    4b16:	48 89 c2             	mov    %rax,%rdx
    4b19:	48 89 c7             	mov    %rax,%rdi
    4b1c:	48 89 c6             	mov    %rax,%rsi
    4b1f:	48 c1 ea 10          	shr    $0x10,%rdx
    4b23:	48 c1 ef 12          	shr    $0x12,%rdi
    4b27:	48 c1 ee 13          	shr    $0x13,%rsi
    4b2b:	83 e2 03             	and    $0x3,%edx
    4b2e:	83 e7 01             	and    $0x1,%edi
    4b31:	66 85 f6             	test   %si,%si
    4b34:	0f 84 50 c9 ff ff    	je     148a <h8_owner_lifecycle_exit.cold>
    4b3a:	0f b6 d2             	movzbl %dl,%edx
    4b3d:	40 0f b6 ff          	movzbl %dil,%edi
    4b41:	83 ee 01             	sub    $0x1,%esi
    4b44:	48 c1 e7 12          	shl    $0x12,%rdi
    4b48:	48 c1 e2 10          	shl    $0x10,%rdx
    4b4c:	0f b7 f6             	movzwl %si,%esi
    4b4f:	48 09 fa             	or     %rdi,%rdx
    4b52:	0f b7 f8             	movzwl %ax,%edi
    4b55:	48 c1 e6 13          	shl    $0x13,%rsi
    4b59:	48 09 fa             	or     %rdi,%rdx
    4b5c:	48 09 f2             	or     %rsi,%rdx
    4b5f:	f0 48 0f b1 11       	lock cmpxchg %rdx,(%rcx)
    4b64:	75 b0                	jne    4b16 <h8_owner_lifecycle_exit+0x16>
    4b66:	c3                   	ret    
    4b67:	66 0f 1f 84 00 00 00 00 00 	nopw   0x0(%rax,%rax,1)

0000000000004b70 <h8_owner_publish_enter>:
    4b70:	f3 0f 1e fa          	endbr64 
    4b74:	0f b7 f6             	movzwl %si,%esi
    4b77:	e9 d4 fe ff ff       	jmp    4a50 <h8_owner_lifecycle_enter>
    4b7c:	0f 1f 40 00          	nopl   0x0(%rax)

0000000000004b80 <h8_owner_publish_exit>:
    4b80:	f3 0f 1e fa          	endbr64 
    4b84:	e9 77 ff ff ff       	jmp    4b00 <h8_owner_lifecycle_exit>
    4b89:	0f 1f 80 00 00 00 00 	nopl   0x0(%rax)

0000000000004b90 <h8_owner_exit>:
    4b90:	f3 0f 1e fa          	endbr64 
    4b94:	48 85 ff             	test   %rdi,%rdi
    4b97:	0f 84 83 02 00 00    	je     4e20 <h8_owner_exit+0x290>
    4b9d:	41 57                	push   %r15
    4b9f:	41 56                	push   %r14
    4ba1:	49 89 fe             	mov    %rdi,%r14
    4ba4:	41 55                	push   %r13
    4ba6:	41 54                	push   %r12
    4ba8:	55                   	push   %rbp
    4ba9:	53                   	push   %rbx
    4baa:	48 83 ec 28          	sub    $0x28,%rsp
    4bae:	80 7f 10 00          	cmpb   $0x0,0x10(%rdi)
    4bb2:	74 14                	je     4bc8 <h8_owner_exit+0x38>
    4bb4:	48 83 c4 28          	add    $0x28,%rsp
    4bb8:	5b                   	pop    %rbx
    4bb9:	5d                   	pop    %rbp
    4bba:	41 5c                	pop    %r12
    4bbc:	41 5d                	pop    %r13
    4bbe:	41 5e                	pop    %r14
    4bc0:	41 5f                	pop    %r15
    4bc2:	c3                   	ret    
    4bc3:	0f 1f 44 00 00       	nopl   0x0(%rax,%rax,1)
    4bc8:	48 b9 ff ff f8 ff 07 00 00 00 	movabs $0x7fff8ffff,%rcx
    4bd2:	48 8b 07             	mov    (%rdi),%rax
    4bd5:	a9 00 00 03 00       	test   $0x30000,%eax
    4bda:	75 14                	jne    4bf0 <h8_owner_exit+0x60>
    4bdc:	48 89 c2             	mov    %rax,%rdx
    4bdf:	48 21 ca             	and    %rcx,%rdx
    4be2:	48 81 ca 00 00 05 00 	or     $0x50000,%rdx
    4be9:	f0 49 0f b1 16       	lock cmpxchg %rdx,(%r14)
    4bee:	75 e5                	jne    4bd5 <h8_owner_exit+0x45>
    4bf0:	4c 89 f7             	mov    %r14,%rdi
    4bf3:	49 8d ae e0 00 00 00 	lea    0xe0(%r14),%rbp
    4bfa:	e8 c1 04 00 00       	call   50c0 <h8_owner_wait_publishers_zero>
    4bff:	4c 89 f7             	mov    %r14,%rdi
    4c02:	e8 b9 0e 00 00       	call   5ac0 <h8_collect_owner_pending>
    4c07:	48 89 ef             	mov    %rbp,%rdi
    4c0a:	e8 51 c8 ff ff       	call   1460 <pthread_mutex_lock@plt>
    4c0f:	4d 8b 66 78          	mov    0x78(%r14),%r12
    4c13:	48 89 ef             	mov    %rbp,%rdi
    4c16:	49 c7 46 78 00 00 00 00 	movq   $0x0,0x78(%r14)
    4c1e:	e8 6d c7 ff ff       	call   1390 <pthread_mutex_unlock@plt>
    4c23:	48 c7 44 24 08 00 00 00 00 	movq   $0x0,0x8(%rsp)
    4c2c:	4d 85 e4             	test   %r12,%r12
    4c2f:	75 3e                	jne    4c6f <h8_owner_exit+0xdf>
    4c31:	e9 2f 01 00 00       	jmp    4d65 <h8_owner_exit+0x1d5>
    4c36:	66 2e 0f 1f 84 00 00 00 00 00 	cs nopw 0x0(%rax,%rax,1)
    4c40:	48 89 ef             	mov    %rbp,%rdi
    4c43:	e8 78 0f 00 00       	call   5bc0 <h8_slot_shadow_verify_span_quiescent>
    4c48:	48 89 ef             	mov    %rbp,%rdi
    4c4b:	e8 e0 e8 ff ff       	call   3530 <h8_span_retire_logical>
    4c50:	48 85 c0             	test   %rax,%rax
    4c53:	74 11                	je     4c66 <h8_owner_exit+0xd6>
    4c55:	48 8b 4c 24 08       	mov    0x8(%rsp),%rcx
    4c5a:	48 89 44 24 08       	mov    %rax,0x8(%rsp)
    4c5f:	48 89 88 88 00 00 00 	mov    %rcx,0x88(%rax)
    4c66:	4d 85 e4             	test   %r12,%r12
    4c69:	0f 84 f6 00 00 00    	je     4d65 <h8_owner_exit+0x1d5>
    4c6f:	4c 89 e5             	mov    %r12,%rbp
    4c72:	4d 8b a4 24 88 00 00 00 	mov    0x88(%r12),%r12
    4c7a:	48 89 ef             	mov    %rbp,%rdi
    4c7d:	e8 ae 0e 00 00       	call   5b30 <h8_slot_allocated_count_quiescent>
    4c82:	48 85 c0             	test   %rax,%rax
    4c85:	74 b9                	je     4c40 <h8_owner_exit+0xb0>
    4c87:	8b 45 48             	mov    0x48(%rbp),%eax
    4c8a:	83 f8 3f             	cmp    $0x3f,%eax
    4c8d:	0f 87 85 01 00 00    	ja     4e18 <h8_owner_exit+0x288>
    4c93:	48 69 c0 38 01 00 00 	imul   $0x138,%rax,%rax
    4c9a:	48 8d 15 df 73 00 00 	lea    0x73df(%rip),%rdx        # c080 <h8g>
    4ca1:	4c 8d 6c 10 40       	lea    0x40(%rax,%rdx,1),%r13
    4ca6:	0f b6 45 4e          	movzbl 0x4e(%rbp),%eax
    4caa:	84 c0                	test   %al,%al
    4cac:	0f 84 26 01 00 00    	je     4dd8 <h8_owner_exit+0x248>
    4cb2:	48 8d 5d 52          	lea    0x52(%rbp),%rbx
    4cb6:	66 2e 0f 1f 84 00 00 00 00 00 	cs nopw 0x0(%rax,%rax,1)
    4cc0:	44 0f b6 3b          	movzbl (%rbx),%r15d
    4cc4:	48 89 ef             	mov    %rbp,%rdi
    4cc7:	e8 14 05 00 00       	call   51e0 <h8_span_pending_quiescent>
    4ccc:	84 c0                	test   %al,%al
    4cce:	75 28                	jne    4cf8 <h8_owner_exit+0x168>
    4cd0:	45 84 ff             	test   %r15b,%r15b
    4cd3:	0f 84 b7 00 00 00    	je     4d90 <h8_owner_exit+0x200>
    4cd9:	41 80 ff 01          	cmp    $0x1,%r15b
    4cdd:	0f 84 c1 00 00 00    	je     4da4 <h8_owner_exit+0x214>
    4ce3:	e8 58 c6 ff ff       	call   1340 <sched_yield@plt>
    4ce8:	44 0f b6 3b          	movzbl (%rbx),%r15d
    4cec:	48 89 ef             	mov    %rbp,%rdi
    4cef:	e8 ec 04 00 00       	call   51e0 <h8_span_pending_quiescent>
    4cf4:	84 c0                	test   %al,%al
    4cf6:	74 d8                	je     4cd0 <h8_owner_exit+0x140>
    4cf8:	0f b6 45 4e          	movzbl 0x4e(%rbp),%eax
    4cfc:	3c 01                	cmp    $0x1,%al
    4cfe:	0f 84 e4 00 00 00    	je     4de8 <h8_owner_exit+0x258>
    4d04:	48 89 ef             	mov    %rbp,%rdi
    4d07:	e8 b4 0e 00 00       	call   5bc0 <h8_slot_shadow_verify_span_quiescent>
    4d0c:	48 8b 45 40          	mov    0x40(%rbp),%rax
    4d10:	89 c2                	mov    %eax,%edx
    4d12:	83 e2 3f             	and    $0x3f,%edx
    4d15:	88 54 24 14          	mov    %dl,0x14(%rsp)
    4d19:	48 89 c2             	mov    %rax,%rdx
    4d1c:	48 c1 ea 06          	shr    $0x6,%rdx
    4d20:	66 89 54 24 16       	mov    %dx,0x16(%rsp)
    4d25:	48 89 c2             	mov    %rax,%rdx
    4d28:	48 c1 e8 19          	shr    $0x19,%rax
    4d2c:	48 c1 ea 16          	shr    $0x16,%rdx
    4d30:	89 44 24 1c          	mov    %eax,0x1c(%rsp)
    4d34:	83 e2 07             	and    $0x7,%edx
    4d37:	88 54 24 18          	mov    %dl,0x18(%rsp)
    4d3b:	e8 40 ee ff ff       	call   3b80 <h8_orphan_owner>
    4d40:	48 8b 74 24 14       	mov    0x14(%rsp),%rsi
    4d45:	8b 54 24 1c          	mov    0x1c(%rsp),%edx
    4d49:	48 89 ef             	mov    %rbp,%rdi
    4d4c:	48 89 c1             	mov    %rax,%rcx
    4d4f:	e8 ec f3 ff ff       	call   4140 <h8_span_handoff>
    4d54:	84 c0                	test   %al,%al
    4d56:	0f 84 34 c7 ff ff    	je     1490 <h8_owner_exit.cold>
    4d5c:	4d 85 e4             	test   %r12,%r12
    4d5f:	0f 85 0a ff ff ff    	jne    4c6f <h8_owner_exit+0xdf>
    4d65:	48 8b 7c 24 08       	mov    0x8(%rsp),%rdi
    4d6a:	e8 91 e8 ff ff       	call   3600 <h8_span_purge_retired_batch>
    4d6f:	4c 89 f7             	mov    %r14,%rdi
    4d72:	e8 79 fc ff ff       	call   49f0 <h8_owner_mark_dead>
    4d77:	48 83 c4 28          	add    $0x28,%rsp
    4d7b:	4c 89 f7             	mov    %r14,%rdi
    4d7e:	5b                   	pop    %rbx
    4d7f:	5d                   	pop    %rbp
    4d80:	41 5c                	pop    %r12
    4d82:	41 5d                	pop    %r13
    4d84:	41 5e                	pop    %r14
    4d86:	41 5f                	pop    %r15
    4d88:	e9 33 fb ff ff       	jmp    48c0 <h8_owner_free_stack_push>
    4d8d:	0f 1f 00             	nopl   (%rax)
    4d90:	48 8b 45 60          	mov    0x60(%rbp),%rax
    4d94:	48 89 ee             	mov    %rbp,%rsi
    4d97:	4c 89 ef             	mov    %r13,%rdi
    4d9a:	48 85 c0             	test   %rax,%rax
    4d9d:	74 19                	je     4db8 <h8_owner_exit+0x228>
    4d9f:	e8 cc 04 00 00       	call   5270 <h8_span_notify>
    4da4:	48 89 ee             	mov    %rbp,%rsi
    4da7:	4c 89 ef             	mov    %r13,%rdi
    4daa:	e8 91 08 00 00       	call   5640 <h8_span_collect_remote>
    4daf:	e9 0c ff ff ff       	jmp    4cc0 <h8_owner_exit+0x130>
    4db4:	0f 1f 40 00          	nopl   0x0(%rax)
    4db8:	e8 03 05 00 00       	call   52c0 <h8_span_repair_pending_mask>
    4dbd:	84 c0                	test   %al,%al
    4dbf:	0f 84 1e ff ff ff    	je     4ce3 <h8_owner_exit+0x153>
    4dc5:	48 89 ee             	mov    %rbp,%rsi
    4dc8:	4c 89 ef             	mov    %r13,%rdi
    4dcb:	e8 70 08 00 00       	call   5640 <h8_span_collect_remote>
    4dd0:	e9 eb fe ff ff       	jmp    4cc0 <h8_owner_exit+0x130>
    4dd5:	0f 1f 00             	nopl   (%rax)
    4dd8:	48 89 ef             	mov    %rbp,%rdi
    4ddb:	e8 00 f3 ff ff       	call   40e0 <h8_span_mark_orphan_quiescing>
    4de0:	e9 cd fe ff ff       	jmp    4cb2 <h8_owner_exit+0x122>
    4de5:	0f 1f 00             	nopl   (%rax)
    4de8:	0f b7 45 50          	movzwl 0x50(%rbp),%eax
    4dec:	66 85 c0             	test   %ax,%ax
    4def:	0f 85 0f ff ff ff    	jne    4d04 <h8_owner_exit+0x174>
    4df5:	48 89 ef             	mov    %rbp,%rdi
    4df8:	e8 e3 03 00 00       	call   51e0 <h8_span_pending_quiescent>
    4dfd:	84 c0                	test   %al,%al
    4dff:	0f 84 ff fe ff ff    	je     4d04 <h8_owner_exit+0x174>
    4e05:	48 89 ef             	mov    %rbp,%rdi
    4e08:	e8 03 f3 ff ff       	call   4110 <h8_span_mark_orphan_ready>
    4e0d:	e9 f2 fe ff ff       	jmp    4d04 <h8_owner_exit+0x174>
    4e12:	66 0f 1f 44 00 00    	nopw   0x0(%rax,%rax,1)
    4e18:	45 31 ed             	xor    %r13d,%r13d
    4e1b:	e9 86 fe ff ff       	jmp    4ca6 <h8_owner_exit+0x116>
    4e20:	c3                   	ret    
    4e21:	66 2e 0f 1f 84 00 00 00 00 00 	cs nopw 0x0(%rax,%rax,1)
    4e2b:	0f 1f 44 00 00       	nopl   0x0(%rax,%rax,1)

0000000000004e30 <h8_owner_add_owned_span>:
    4e30:	f3 0f 1e fa          	endbr64 
    4e34:	41 54                	push   %r12
    4e36:	4c 8d a7 e0 00 00 00 	lea    0xe0(%rdi),%r12
    4e3d:	55                   	push   %rbp
    4e3e:	48 89 f5             	mov    %rsi,%rbp
    4e41:	53                   	push   %rbx
    4e42:	48 89 fb             	mov    %rdi,%rbx
    4e45:	4c 89 e7             	mov    %r12,%rdi
    4e48:	e8 13 c6 ff ff       	call   1460 <pthread_mutex_lock@plt>
    4e4d:	48 8b 43 78          	mov    0x78(%rbx),%rax
    4e51:	4c 89 e7             	mov    %r12,%rdi
    4e54:	48 89 85 88 00 00 00 	mov    %rax,0x88(%rbp)
    4e5b:	0f b7 45 08          	movzwl 0x8(%rbp),%eax
    4e5f:	48 89 6b 78          	mov    %rbp,0x78(%rbx)
    4e63:	48 83 c0 02          	add    $0x2,%rax
    4e67:	48 8b 54 c3 08       	mov    0x8(%rbx,%rax,8),%rdx
    4e6c:	48 89 95 90 00 00 00 	mov    %rdx,0x90(%rbp)
    4e73:	48 89 6c c3 08       	mov    %rbp,0x8(%rbx,%rax,8)
    4e78:	5b                   	pop    %rbx
    4e79:	5d                   	pop    %rbp
    4e7a:	41 5c                	pop    %r12
    4e7c:	e9 0f c5 ff ff       	jmp    1390 <pthread_mutex_unlock@plt>
    4e81:	66 66 2e 0f 1f 84 00 00 00 00 00 	data16 cs nopw 0x0(%rax,%rax,1)
    4e8c:	0f 1f 40 00          	nopl   0x0(%rax)

0000000000004e90 <h8_owner_remove_owned_span>:
    4e90:	f3 0f 1e fa          	endbr64 
    4e94:	41 54                	push   %r12
    4e96:	4c 8d a7 e0 00 00 00 	lea    0xe0(%rdi),%r12
    4e9d:	55                   	push   %rbp
    4e9e:	48 89 fd             	mov    %rdi,%rbp
    4ea1:	4c 89 e7             	mov    %r12,%rdi
    4ea4:	53                   	push   %rbx
    4ea5:	48 89 f3             	mov    %rsi,%rbx
    4ea8:	e8 b3 c5 ff ff       	call   1460 <pthread_mutex_lock@plt>
    4ead:	48 8b 45 78          	mov    0x78(%rbp),%rax
    4eb1:	48 85 c0             	test   %rax,%rax
    4eb4:	74 1e                	je     4ed4 <h8_owner_remove_owned_span+0x44>
    4eb6:	48 39 c3             	cmp    %rax,%rbx
    4eb9:	75 0a                	jne    4ec5 <h8_owner_remove_owned_span+0x35>
    4ebb:	e9 9b 00 00 00       	jmp    4f5b <h8_owner_remove_owned_span+0xcb>
    4ec0:	48 39 c3             	cmp    %rax,%rbx
    4ec3:	74 6b                	je     4f30 <h8_owner_remove_owned_span+0xa0>
    4ec5:	48 89 c2             	mov    %rax,%rdx
    4ec8:	48 8b 80 88 00 00 00 	mov    0x88(%rax),%rax
    4ecf:	48 85 c0             	test   %rax,%rax
    4ed2:	75 ec                	jne    4ec0 <h8_owner_remove_owned_span+0x30>
    4ed4:	0f b7 43 08          	movzwl 0x8(%rbx),%eax
    4ed8:	48 89 c2             	mov    %rax,%rdx
    4edb:	48 8b 44 c5 18       	mov    0x18(%rbp,%rax,8),%rax
    4ee0:	48 85 c0             	test   %rax,%rax
    4ee3:	74 1f                	je     4f04 <h8_owner_remove_owned_span+0x74>
    4ee5:	48 39 c3             	cmp    %rax,%rbx
    4ee8:	75 0b                	jne    4ef5 <h8_owner_remove_owned_span+0x65>
    4eea:	eb 75                	jmp    4f61 <h8_owner_remove_owned_span+0xd1>
    4eec:	0f 1f 40 00          	nopl   0x0(%rax)
    4ef0:	48 39 c3             	cmp    %rax,%rbx
    4ef3:	74 53                	je     4f48 <h8_owner_remove_owned_span+0xb8>
    4ef5:	48 89 c2             	mov    %rax,%rdx
    4ef8:	48 8b 80 90 00 00 00 	mov    0x90(%rax),%rax
    4eff:	48 85 c0             	test   %rax,%rax
    4f02:	75 ec                	jne    4ef0 <h8_owner_remove_owned_span+0x60>
    4f04:	48 c7 83 88 00 00 00 00 00 00 00 	movq   $0x0,0x88(%rbx)
    4f0f:	4c 89 e7             	mov    %r12,%rdi
    4f12:	48 c7 83 90 00 00 00 00 00 00 00 	movq   $0x0,0x90(%rbx)
    4f1d:	5b                   	pop    %rbx
    4f1e:	5d                   	pop    %rbp
    4f1f:	41 5c                	pop    %r12
    4f21:	e9 6a c4 ff ff       	jmp    1390 <pthread_mutex_unlock@plt>
    4f26:	66 2e 0f 1f 84 00 00 00 00 00 	cs nopw 0x0(%rax,%rax,1)
    4f30:	48 81 c2 88 00 00 00 	add    $0x88,%rdx
    4f37:	48 8b 83 88 00 00 00 	mov    0x88(%rbx),%rax
    4f3e:	48 89 02             	mov    %rax,(%rdx)
    4f41:	eb 91                	jmp    4ed4 <h8_owner_remove_owned_span+0x44>
    4f43:	0f 1f 44 00 00       	nopl   0x0(%rax,%rax,1)
    4f48:	48 81 c2 90 00 00 00 	add    $0x90,%rdx
    4f4f:	48 8b 83 90 00 00 00 	mov    0x90(%rbx),%rax
    4f56:	48 89 02             	mov    %rax,(%rdx)
    4f59:	eb a9                	jmp    4f04 <h8_owner_remove_owned_span+0x74>
    4f5b:	48 8d 55 78          	lea    0x78(%rbp),%rdx
    4f5f:	eb d6                	jmp    4f37 <h8_owner_remove_owned_span+0xa7>
    4f61:	8d 42 03             	lea    0x3(%rdx),%eax
    4f64:	48 98                	cltq   
    4f66:	48 8d 54 c5 00       	lea    0x0(%rbp,%rax,8),%rdx
    4f6b:	eb e2                	jmp    4f4f <h8_owner_remove_owned_span+0xbf>
    4f6d:	0f 1f 00             	nopl   (%rax)

0000000000004f70 <h8_owner_add_orphan_span>:
    4f70:	f3 0f 1e fa          	endbr64 
    4f74:	41 54                	push   %r12
    4f76:	4c 8d a7 e0 00 00 00 	lea    0xe0(%rdi),%r12
    4f7d:	55                   	push   %rbp
    4f7e:	48 89 f5             	mov    %rsi,%rbp
    4f81:	53                   	push   %rbx
    4f82:	48 89 fb             	mov    %rdi,%rbx
    4f85:	4c 89 e7             	mov    %r12,%rdi
    4f88:	e8 d3 c4 ff ff       	call   1460 <pthread_mutex_lock@plt>
    4f8d:	48 8b 83 80 00 00 00 	mov    0x80(%rbx),%rax
    4f94:	4c 89 e7             	mov    %r12,%rdi
    4f97:	48 89 85 a0 00 00 00 	mov    %rax,0xa0(%rbp)
    4f9e:	0f b7 45 08          	movzwl 0x8(%rbp),%eax
    4fa2:	48 89 ab 80 00 00 00 	mov    %rbp,0x80(%rbx)
    4fa9:	48 83 c0 10          	add    $0x10,%rax
    4fad:	48 8b 54 c3 08       	mov    0x8(%rbx,%rax,8),%rdx
    4fb2:	48 89 95 a8 00 00 00 	mov    %rdx,0xa8(%rbp)
    4fb9:	48 89 6c c3 08       	mov    %rbp,0x8(%rbx,%rax,8)
    4fbe:	5b                   	pop    %rbx
    4fbf:	5d                   	pop    %rbp
    4fc0:	41 5c                	pop    %r12
    4fc2:	e9 c9 c3 ff ff       	jmp    1390 <pthread_mutex_unlock@plt>
    4fc7:	66 0f 1f 84 00 00 00 00 00 	nopw   0x0(%rax,%rax,1)

0000000000004fd0 <h8_owner_remove_orphan_span>:
    4fd0:	f3 0f 1e fa          	endbr64 
    4fd4:	41 54                	push   %r12
    4fd6:	4c 8d a7 e0 00 00 00 	lea    0xe0(%rdi),%r12
    4fdd:	55                   	push   %rbp
    4fde:	48 89 fd             	mov    %rdi,%rbp
    4fe1:	4c 89 e7             	mov    %r12,%rdi
    4fe4:	53                   	push   %rbx
    4fe5:	48 89 f3             	mov    %rsi,%rbx
    4fe8:	e8 73 c4 ff ff       	call   1460 <pthread_mutex_lock@plt>
    4fed:	48 8b 85 80 00 00 00 	mov    0x80(%rbp),%rax
    4ff4:	48 85 c0             	test   %rax,%rax
    4ff7:	74 23                	je     501c <h8_owner_remove_orphan_span+0x4c>
    4ff9:	48 39 c3             	cmp    %rax,%rbx
    4ffc:	75 0f                	jne    500d <h8_owner_remove_orphan_span+0x3d>
    4ffe:	e9 a8 00 00 00       	jmp    50ab <h8_owner_remove_orphan_span+0xdb>
    5003:	0f 1f 44 00 00       	nopl   0x0(%rax,%rax,1)
    5008:	48 39 c3             	cmp    %rax,%rbx
    500b:	74 73                	je     5080 <h8_owner_remove_orphan_span+0xb0>
    500d:	48 89 c2             	mov    %rax,%rdx
    5010:	48 8b 80 a0 00 00 00 	mov    0xa0(%rax),%rax
    5017:	48 85 c0             	test   %rax,%rax
    501a:	75 ec                	jne    5008 <h8_owner_remove_orphan_span+0x38>
    501c:	0f b7 43 08          	movzwl 0x8(%rbx),%eax
    5020:	48 89 c2             	mov    %rax,%rdx
    5023:	48 8b 84 c5 88 00 00 00 	mov    0x88(%rbp,%rax,8),%rax
    502b:	48 85 c0             	test   %rax,%rax
    502e:	74 24                	je     5054 <h8_owner_remove_orphan_span+0x84>
    5030:	48 39 c3             	cmp    %rax,%rbx
    5033:	75 10                	jne    5045 <h8_owner_remove_orphan_span+0x75>
    5035:	eb 7d                	jmp    50b4 <h8_owner_remove_orphan_span+0xe4>
    5037:	66 0f 1f 84 00 00 00 00 00 	nopw   0x0(%rax,%rax,1)
    5040:	48 39 c3             	cmp    %rax,%rbx
    5043:	74 53                	je     5098 <h8_owner_remove_orphan_span+0xc8>
    5045:	48 89 c2             	mov    %rax,%rdx
    5048:	48 8b 80 a8 00 00 00 	mov    0xa8(%rax),%rax
    504f:	48 85 c0             	test   %rax,%rax
    5052:	75 ec                	jne    5040 <h8_owner_remove_orphan_span+0x70>
    5054:	48 c7 83 a0 00 00 00 00 00 00 00 	movq   $0x0,0xa0(%rbx)
    505f:	4c 89 e7             	mov    %r12,%rdi
    5062:	48 c7 83 a8 00 00 00 00 00 00 00 	movq   $0x0,0xa8(%rbx)
    506d:	5b                   	pop    %rbx
    506e:	5d                   	pop    %rbp
    506f:	41 5c                	pop    %r12
    5071:	e9 1a c3 ff ff       	jmp    1390 <pthread_mutex_unlock@plt>
    5076:	66 2e 0f 1f 84 00 00 00 00 00 	cs nopw 0x0(%rax,%rax,1)
    5080:	48 81 c2 a0 00 00 00 	add    $0xa0,%rdx
    5087:	48 8b 83 a0 00 00 00 	mov    0xa0(%rbx),%rax
    508e:	48 89 02             	mov    %rax,(%rdx)
    5091:	eb 89                	jmp    501c <h8_owner_remove_orphan_span+0x4c>
    5093:	0f 1f 44 00 00       	nopl   0x0(%rax,%rax,1)
    5098:	48 81 c2 a8 00 00 00 	add    $0xa8,%rdx
    509f:	48 8b 83 a8 00 00 00 	mov    0xa8(%rbx),%rax
    50a6:	48 89 02             	mov    %rax,(%rdx)
    50a9:	eb a9                	jmp    5054 <h8_owner_remove_orphan_span+0x84>
    50ab:	48 8d 95 80 00 00 00 	lea    0x80(%rbp),%rdx
    50b2:	eb d3                	jmp    5087 <h8_owner_remove_orphan_span+0xb7>
    50b4:	8d 42 11             	lea    0x11(%rdx),%eax
    50b7:	48 98                	cltq   
    50b9:	48 8d 54 c5 00       	lea    0x0(%rbp,%rax,8),%rdx
    50be:	eb df                	jmp    509f <h8_owner_remove_orphan_span+0xcf>

00000000000050c0 <h8_owner_wait_publishers_zero>:
    50c0:	f3 0f 1e fa          	endbr64 
    50c4:	80 7f 10 00          	cmpb   $0x0,0x10(%rdi)
    50c8:	75 26                	jne    50f0 <h8_owner_wait_publishers_zero+0x30>
    50ca:	53                   	push   %rbx
    50cb:	48 89 fb             	mov    %rdi,%rbx
    50ce:	eb 05                	jmp    50d5 <h8_owner_wait_publishers_zero+0x15>
    50d0:	e8 6b c2 ff ff       	call   1340 <sched_yield@plt>
    50d5:	48 8b 03             	mov    (%rbx),%rax
    50d8:	48 c1 e8 13          	shr    $0x13,%rax
    50dc:	66 85 c0             	test   %ax,%ax
    50df:	75 ef                	jne    50d0 <h8_owner_wait_publishers_zero+0x10>
    50e1:	b8 01 00 00 00       	mov    $0x1,%eax
    50e6:	5b                   	pop    %rbx
    50e7:	c3                   	ret    
    50e8:	0f 1f 84 00 00 00 00 00 	nopl   0x0(%rax,%rax,1)
    50f0:	b8 01 00 00 00       	mov    $0x1,%eax
    50f5:	c3                   	ret    
    50f6:	66 2e 0f 1f 84 00 00 00 00 00 	cs nopw 0x0(%rax,%rax,1)

0000000000005100 <h8_malloc>:
    5100:	f3 0f 1e fa          	endbr64 
    5104:	e9 e7 0b 00 00       	jmp    5cf0 <h8_malloc_inner>
    5109:	0f 1f 80 00 00 00 00 	nopl   0x0(%rax)

0000000000005110 <h8_calloc>:
    5110:	f3 0f 1e fa          	endbr64 
    5114:	48 85 ff             	test   %rdi,%rdi
    5117:	74 08                	je     5121 <h8_calloc+0x11>
    5119:	48 89 f0             	mov    %rsi,%rax
    511c:	48 f7 e7             	mul    %rdi
    511f:	70 2c                	jo     514d <h8_calloc+0x3d>
    5121:	41 54                	push   %r12
    5123:	48 0f af fe          	imul   %rsi,%rdi
    5127:	49 89 fc             	mov    %rdi,%r12
    512a:	e8 c1 0b 00 00       	call   5cf0 <h8_malloc_inner>
    512f:	49 89 c0             	mov    %rax,%r8
    5132:	48 85 c0             	test   %rax,%rax
    5135:	74 10                	je     5147 <h8_calloc+0x37>
    5137:	4c 89 e2             	mov    %r12,%rdx
    513a:	31 f6                	xor    %esi,%esi
    513c:	48 89 c7             	mov    %rax,%rdi
    513f:	e8 ec c1 ff ff       	call   1330 <memset@plt>
    5144:	49 89 c0             	mov    %rax,%r8
    5147:	4c 89 c0             	mov    %r8,%rax
    514a:	41 5c                	pop    %r12
    514c:	c3                   	ret    
    514d:	31 c0                	xor    %eax,%eax
    514f:	c3                   	ret    

0000000000005150 <h8_free>:
    5150:	f3 0f 1e fa          	endbr64 
    5154:	e9 37 0e 00 00       	jmp    5f90 <h8_free_inner>
    5159:	0f 1f 80 00 00 00 00 	nopl   0x0(%rax)

0000000000005160 <h8_pressure_owner_collect>:
    5160:	f3 0f 1e fa          	endbr64 
    5164:	48 85 ff             	test   %rdi,%rdi
    5167:	74 37                	je     51a0 <h8_pressure_owner_collect+0x40>
    5169:	48 8b 47 68          	mov    0x68(%rdi),%rax
    516d:	48 85 c0             	test   %rax,%rax
    5170:	74 2e                	je     51a0 <h8_pressure_owner_collect+0x40>
    5172:	be 01 00 00 00       	mov    $0x1,%esi
    5177:	48 83 f8 02          	cmp    $0x2,%rax
    517b:	76 1a                	jbe    5197 <h8_pressure_owner_collect+0x37>
    517d:	be 02 00 00 00       	mov    $0x2,%esi
    5182:	48 83 f8 08          	cmp    $0x8,%rax
    5186:	76 0f                	jbe    5197 <h8_pressure_owner_collect+0x37>
    5188:	48 83 f8 21          	cmp    $0x21,%rax
    518c:	48 19 f6             	sbb    %rsi,%rsi
    518f:	48 83 e6 fc          	and    $0xfffffffffffffffc,%rsi
    5193:	48 83 c6 08          	add    $0x8,%rsi
    5197:	e9 a4 07 00 00       	jmp    5940 <h8_collect_owner_pending_budget>
    519c:	0f 1f 40 00          	nopl   0x0(%rax)
    51a0:	c3                   	ret    
    51a1:	66 66 2e 0f 1f 84 00 00 00 00 00 	data16 cs nopw 0x0(%rax,%rax,1)
    51ac:	0f 1f 40 00          	nopl   0x0(%rax)

00000000000051b0 <h8_pressure_refill>:
    51b0:	f3 0f 1e fa          	endbr64 
    51b4:	48 85 ff             	test   %rdi,%rdi
    51b7:	74 07                	je     51c0 <h8_pressure_refill+0x10>
    51b9:	e9 a2 e1 ff ff       	jmp    3360 <h8_span_commit_for_class>
    51be:	66 90                	xchg   %ax,%ax
    51c0:	48 83 ec 18          	sub    $0x18,%rsp
    51c4:	89 74 24 0c          	mov    %esi,0xc(%rsp)
    51c8:	e8 f3 ea ff ff       	call   3cc0 <h8_owner_current>
    51cd:	8b 74 24 0c          	mov    0xc(%rsp),%esi
    51d1:	48 83 c4 18          	add    $0x18,%rsp
    51d5:	48 89 c7             	mov    %rax,%rdi
    51d8:	e9 83 e1 ff ff       	jmp    3360 <h8_span_commit_for_class>
    51dd:	0f 1f 00             	nopl   (%rax)

00000000000051e0 <h8_span_pending_quiescent>:
    51e0:	f3 0f 1e fa          	endbr64 
    51e4:	0f b7 4f 0a          	movzwl 0xa(%rdi),%ecx
    51e8:	0f b6 47 52          	movzbl 0x52(%rdi),%eax
    51ec:	48 89 fa             	mov    %rdi,%rdx
    51ef:	84 c0                	test   %al,%al
    51f1:	74 0d                	je     5200 <h8_span_pending_quiescent+0x20>
    51f3:	31 c0                	xor    %eax,%eax
    51f5:	c3                   	ret    
    51f6:	66 2e 0f 1f 84 00 00 00 00 00 	cs nopw 0x0(%rax,%rax,1)
    5200:	48 8b 47 60          	mov    0x60(%rdi),%rax
    5204:	48 85 c0             	test   %rax,%rax
    5207:	75 ea                	jne    51f3 <h8_span_pending_quiescent+0x13>
    5209:	48 83 c1 3f          	add    $0x3f,%rcx
    520d:	49 c7 c1 ff ff ff ff 	mov    $0xffffffffffffffff,%r9
    5214:	48 c1 e9 06          	shr    $0x6,%rcx
    5218:	4c 8d 04 cd 00 00 00 00 	lea    0x0(,%rcx,8),%r8
    5220:	74 45                	je     5267 <h8_span_pending_quiescent+0x87>
    5222:	66 0f 1f 44 00 00    	nopw   0x0(%rax,%rax,1)
    5228:	48 8b 4a 18          	mov    0x18(%rdx),%rcx
    522c:	48 8d 3c c5 00 00 00 00 	lea    0x0(,%rax,8),%rdi
    5234:	48 8b 34 01          	mov    (%rcx,%rax,1),%rsi
    5238:	0f b7 4a 0a          	movzwl 0xa(%rdx),%ecx
    523c:	48 39 cf             	cmp    %rcx,%rdi
    523f:	73 1d                	jae    525e <h8_span_pending_quiescent+0x7e>
    5241:	48 29 f9             	sub    %rdi,%rcx
    5244:	48 83 f9 3f          	cmp    $0x3f,%rcx
    5248:	77 0f                	ja     5259 <h8_span_pending_quiescent+0x79>
    524a:	4c 89 cf             	mov    %r9,%rdi
    524d:	48 d3 e7             	shl    %cl,%rdi
    5250:	48 89 f9             	mov    %rdi,%rcx
    5253:	48 f7 d1             	not    %rcx
    5256:	48 21 ce             	and    %rcx,%rsi
    5259:	48 85 f6             	test   %rsi,%rsi
    525c:	75 95                	jne    51f3 <h8_span_pending_quiescent+0x13>
    525e:	48 83 c0 08          	add    $0x8,%rax
    5262:	49 39 c0             	cmp    %rax,%r8
    5265:	75 c1                	jne    5228 <h8_span_pending_quiescent+0x48>
    5267:	b8 01 00 00 00       	mov    $0x1,%eax
    526c:	c3                   	ret    
    526d:	0f 1f 00             	nopl   (%rax)

0000000000005270 <h8_span_notify>:
    5270:	f3 0f 1e fa          	endbr64 
    5274:	0f b6 46 52          	movzbl 0x52(%rsi),%eax
    5278:	48 8d 56 52          	lea    0x52(%rsi),%rdx
    527c:	41 b8 03 00 00 00    	mov    $0x3,%r8d
    5282:	b9 01 00 00 00       	mov    $0x1,%ecx
    5287:	84 c0                	test   %al,%al
    5289:	75 25                	jne    52b0 <h8_span_notify+0x40>
    528b:	f0 0f b0 0a          	lock cmpxchg %cl,(%rdx)
    528f:	75 f6                	jne    5287 <h8_span_notify+0x17>
    5291:	48 8b 47 60          	mov    0x60(%rdi),%rax
    5295:	48 8d 57 60          	lea    0x60(%rdi),%rdx
    5299:	48 89 86 98 00 00 00 	mov    %rax,0x98(%rsi)
    52a0:	f0 48 0f b1 32       	lock cmpxchg %rsi,(%rdx)
    52a5:	75 f2                	jne    5299 <h8_span_notify+0x29>
    52a7:	f0 48 83 47 68 01    	lock addq $0x1,0x68(%rdi)
    52ad:	c3                   	ret    
    52ae:	66 90                	xchg   %ax,%ax
    52b0:	3c 02                	cmp    $0x2,%al
    52b2:	75 07                	jne    52bb <h8_span_notify+0x4b>
    52b4:	f0 44 0f b0 02       	lock cmpxchg %r8b,(%rdx)
    52b9:	75 cc                	jne    5287 <h8_span_notify+0x17>
    52bb:	c3                   	ret    
    52bc:	0f 1f 40 00          	nopl   0x0(%rax)

00000000000052c0 <h8_span_repair_pending_mask>:
    52c0:	f3 0f 1e fa          	endbr64 
    52c4:	44 0f b7 4e 0a       	movzwl 0xa(%rsi),%r9d
    52c9:	49 83 c1 3f          	add    $0x3f,%r9
    52cd:	49 c1 e9 06          	shr    $0x6,%r9
    52d1:	0f 84 99 00 00 00    	je     5370 <h8_span_repair_pending_mask+0xb0>
    52d7:	41 56                	push   %r14
    52d9:	49 89 fb             	mov    %rdi,%r11
    52dc:	31 c0                	xor    %eax,%eax
    52de:	45 31 c0             	xor    %r8d,%r8d
    52e1:	53                   	push   %rbx
    52e2:	41 ba 01 00 00 00    	mov    $0x1,%r10d
    52e8:	48 c7 c3 ff ff ff ff 	mov    $0xffffffffffffffff,%rbx
    52ef:	48 83 ec 08          	sub    $0x8,%rsp
    52f3:	0f 1f 44 00 00       	nopl   0x0(%rax,%rax,1)
    52f8:	48 8b 56 18          	mov    0x18(%rsi),%rdx
    52fc:	48 89 c7             	mov    %rax,%rdi
    52ff:	48 c1 e7 06          	shl    $0x6,%rdi
    5303:	48 8b 14 c2          	mov    (%rdx,%rax,8),%rdx
    5307:	0f b7 4e 0a          	movzwl 0xa(%rsi),%ecx
    530b:	48 39 cf             	cmp    %rcx,%rdi
    530e:	73 33                	jae    5343 <h8_span_repair_pending_mask+0x83>
    5310:	48 29 f9             	sub    %rdi,%rcx
    5313:	48 83 f9 3f          	cmp    $0x3f,%rcx
    5317:	77 0f                	ja     5328 <h8_span_repair_pending_mask+0x68>
    5319:	48 89 df             	mov    %rbx,%rdi
    531c:	48 d3 e7             	shl    %cl,%rdi
    531f:	48 89 f9             	mov    %rdi,%rcx
    5322:	48 f7 d1             	not    %rcx
    5325:	48 21 ca             	and    %rcx,%rdx
    5328:	89 c1                	mov    %eax,%ecx
    532a:	4d 89 d6             	mov    %r10,%r14
    532d:	4c 89 c7             	mov    %r8,%rdi
    5330:	49 d3 e6             	shl    %cl,%r14
    5333:	4c 89 f1             	mov    %r14,%rcx
    5336:	4c 09 c1             	or     %r8,%rcx
    5339:	48 85 d2             	test   %rdx,%rdx
    533c:	48 0f 45 f9          	cmovne %rcx,%rdi
    5340:	49 89 f8             	mov    %rdi,%r8
    5343:	48 83 c0 01          	add    $0x1,%rax
    5347:	49 39 c1             	cmp    %rax,%r9
    534a:	75 ac                	jne    52f8 <h8_span_repair_pending_mask+0x38>
    534c:	31 c0                	xor    %eax,%eax
    534e:	4d 85 c0             	test   %r8,%r8
    5351:	74 12                	je     5365 <h8_span_repair_pending_mask+0xa5>
    5353:	f0 4c 09 46 60       	lock or %r8,0x60(%rsi)
    5358:	4c 89 df             	mov    %r11,%rdi
    535b:	e8 10 ff ff ff       	call   5270 <h8_span_notify>
    5360:	b8 01 00 00 00       	mov    $0x1,%eax
    5365:	48 83 c4 08          	add    $0x8,%rsp
    5369:	5b                   	pop    %rbx
    536a:	41 5e                	pop    %r14
    536c:	c3                   	ret    
    536d:	0f 1f 00             	nopl   (%rax)
    5370:	31 c0                	xor    %eax,%eax
    5372:	c3                   	ret    
    5373:	66 66 2e 0f 1f 84 00 00 00 00 00 	data16 cs nopw 0x0(%rax,%rax,1)
    537e:	66 90                	xchg   %ax,%ax

0000000000005380 <h8_remote_free_publish_known>:
    5380:	f3 0f 1e fa          	endbr64 
    5384:	41 55                	push   %r13
    5386:	41 54                	push   %r12
    5388:	55                   	push   %rbp
    5389:	48 89 fd             	mov    %rdi,%rbp
    538c:	53                   	push   %rbx
    538d:	48 89 f3             	mov    %rsi,%rbx
    5390:	48 83 ec 08          	sub    $0x8,%rsp
    5394:	48 8b 77 40          	mov    0x40(%rdi),%rsi
    5398:	48 89 f0             	mov    %rsi,%rax
    539b:	83 e0 3f             	and    $0x3f,%eax
    539e:	48 8d 15 db 6c 00 00 	lea    0x6cdb(%rip),%rdx        # c080 <h8g>
    53a5:	48 69 c0 38 01 00 00 	imul   $0x138,%rax,%rax
    53ac:	4c 8d 6c 10 40       	lea    0x40(%rax,%rdx,1),%r13
    53b1:	48 89 f0             	mov    %rsi,%rax
    53b4:	83 e0 3f             	and    $0x3f,%eax
    53b7:	48 69 c0 38 01 00 00 	imul   $0x138,%rax,%rax
    53be:	80 7c 02 50 00       	cmpb   $0x0,0x50(%rdx,%rax,1)
    53c3:	74 2b                	je     53f0 <h8_remote_free_publish_known+0x70>
    53c5:	e8 46 ec ff ff       	call   4010 <h8_span_publish_enter>
    53ca:	84 c0                	test   %al,%al
    53cc:	0f 85 c6 00 00 00    	jne    5498 <h8_remote_free_publish_known+0x118>
    53d2:	48 83 c4 08          	add    $0x8,%rsp
    53d6:	41 bc 04 00 00 00    	mov    $0x4,%r12d
    53dc:	5b                   	pop    %rbx
    53dd:	44 89 e0             	mov    %r12d,%eax
    53e0:	5d                   	pop    %rbp
    53e1:	41 5c                	pop    %r12
    53e3:	41 5d                	pop    %r13
    53e5:	c3                   	ret    
    53e6:	66 2e 0f 1f 84 00 00 00 00 00 	cs nopw 0x0(%rax,%rax,1)
    53f0:	48 c1 ee 06          	shr    $0x6,%rsi
    53f4:	4c 89 ef             	mov    %r13,%rdi
    53f7:	0f b7 f6             	movzwl %si,%esi
    53fa:	e8 71 f7 ff ff       	call   4b70 <h8_owner_publish_enter>
    53ff:	84 c0                	test   %al,%al
    5401:	74 cf                	je     53d2 <h8_remote_free_publish_known+0x52>
    5403:	48 8b 45 20          	mov    0x20(%rbp),%rax
    5407:	48 8b 75 18          	mov    0x18(%rbp),%rsi
    540b:	41 bc 02 00 00 00    	mov    $0x2,%r12d
    5411:	8b 04 98             	mov    (%rax,%rbx,4),%eax
    5414:	c1 e8 1e             	shr    $0x1e,%eax
    5417:	83 f8 01             	cmp    $0x1,%eax
    541a:	75 5f                	jne    547b <h8_remote_free_publish_known+0xfb>
    541c:	49 89 d8             	mov    %rbx,%r8
    541f:	89 d9                	mov    %ebx,%ecx
    5421:	ba 01 00 00 00       	mov    $0x1,%edx
    5426:	41 89 d9             	mov    %ebx,%r9d
    5429:	49 c1 e8 06          	shr    $0x6,%r8
    542d:	48 d3 e2             	shl    %cl,%rdx
    5430:	41 83 e1 3f          	and    $0x3f,%r9d
    5434:	4a 8d 0c c6          	lea    (%rsi,%r8,8),%rcx
    5438:	48 8b 01             	mov    (%rcx),%rax
    543b:	48 89 c7             	mov    %rax,%rdi
    543e:	48 89 c6             	mov    %rax,%rsi
    5441:	48 09 d7             	or     %rdx,%rdi
    5444:	f0 48 0f b1 39       	lock cmpxchg %rdi,(%rcx)
    5449:	75 f0                	jne    543b <h8_remote_free_publish_known+0xbb>
    544b:	41 bc 03 00 00 00    	mov    $0x3,%r12d
    5451:	48 85 f2             	test   %rsi,%rdx
    5454:	75 25                	jne    547b <h8_remote_free_publish_known+0xfb>
    5456:	48 8b 45 20          	mov    0x20(%rbp),%rax
    545a:	8b 04 98             	mov    (%rax,%rbx,4),%eax
    545d:	c1 e8 1e             	shr    $0x1e,%eax
    5460:	83 f8 01             	cmp    $0x1,%eax
    5463:	0f 84 b7 00 00 00    	je     5520 <h8_remote_free_publish_known+0x1a0>
    5469:	0f b6 45 52          	movzbl 0x52(%rbp),%eax
    546d:	83 e8 02             	sub    $0x2,%eax
    5470:	3c 01                	cmp    $0x1,%al
    5472:	0f 87 f8 00 00 00    	ja     5570 <h8_remote_free_publish_known+0x1f0>
    5478:	45 31 e4             	xor    %r12d,%r12d
    547b:	4c 89 ef             	mov    %r13,%rdi
    547e:	e8 fd f6 ff ff       	call   4b80 <h8_owner_publish_exit>
    5483:	48 83 c4 08          	add    $0x8,%rsp
    5487:	44 89 e0             	mov    %r12d,%eax
    548a:	5b                   	pop    %rbx
    548b:	5d                   	pop    %rbp
    548c:	41 5c                	pop    %r12
    548e:	41 5d                	pop    %r13
    5490:	c3                   	ret    
    5491:	0f 1f 80 00 00 00 00 	nopl   0x0(%rax)
    5498:	48 8b 45 20          	mov    0x20(%rbp),%rax
    549c:	48 8b 75 18          	mov    0x18(%rbp),%rsi
    54a0:	41 bc 02 00 00 00    	mov    $0x2,%r12d
    54a6:	8b 04 98             	mov    (%rax,%rbx,4),%eax
    54a9:	c1 e8 1e             	shr    $0x1e,%eax
    54ac:	83 f8 01             	cmp    $0x1,%eax
    54af:	75 55                	jne    5506 <h8_remote_free_publish_known+0x186>
    54b1:	49 89 d8             	mov    %rbx,%r8
    54b4:	89 d9                	mov    %ebx,%ecx
    54b6:	ba 01 00 00 00       	mov    $0x1,%edx
    54bb:	41 89 d9             	mov    %ebx,%r9d
    54be:	49 c1 e8 06          	shr    $0x6,%r8
    54c2:	48 d3 e2             	shl    %cl,%rdx
    54c5:	41 83 e1 3f          	and    $0x3f,%r9d
    54c9:	4a 8d 0c c6          	lea    (%rsi,%r8,8),%rcx
    54cd:	48 8b 01             	mov    (%rcx),%rax
    54d0:	48 89 c7             	mov    %rax,%rdi
    54d3:	48 89 c6             	mov    %rax,%rsi
    54d6:	48 09 d7             	or     %rdx,%rdi
    54d9:	f0 48 0f b1 39       	lock cmpxchg %rdi,(%rcx)
    54de:	75 f0                	jne    54d0 <h8_remote_free_publish_known+0x150>
    54e0:	41 bc 03 00 00 00    	mov    $0x3,%r12d
    54e6:	48 85 f2             	test   %rsi,%rdx
    54e9:	75 1b                	jne    5506 <h8_remote_free_publish_known+0x186>
    54eb:	48 8b 45 20          	mov    0x20(%rbp),%rax
    54ef:	8b 04 98             	mov    (%rax,%rbx,4),%eax
    54f2:	c1 e8 1e             	shr    $0x1e,%eax
    54f5:	83 f8 01             	cmp    $0x1,%eax
    54f8:	75 56                	jne    5550 <h8_remote_free_publish_known+0x1d0>
    54fa:	48 85 f6             	test   %rsi,%rsi
    54fd:	0f 84 8d 00 00 00    	je     5590 <h8_remote_free_publish_known+0x210>
    5503:	45 31 e4             	xor    %r12d,%r12d
    5506:	48 89 ef             	mov    %rbp,%rdi
    5509:	e8 f2 ea ff ff       	call   4000 <h8_span_publish_exit>
    550e:	48 83 c4 08          	add    $0x8,%rsp
    5512:	44 89 e0             	mov    %r12d,%eax
    5515:	5b                   	pop    %rbx
    5516:	5d                   	pop    %rbp
    5517:	41 5c                	pop    %r12
    5519:	41 5d                	pop    %r13
    551b:	c3                   	ret    
    551c:	0f 1f 40 00          	nopl   0x0(%rax)
    5520:	48 85 f6             	test   %rsi,%rsi
    5523:	0f 85 4f ff ff ff    	jne    5478 <h8_remote_free_publish_known+0xf8>
    5529:	44 89 c1             	mov    %r8d,%ecx
    552c:	b8 01 00 00 00       	mov    $0x1,%eax
    5531:	48 d3 e0             	shl    %cl,%rax
    5534:	f0 48 09 45 60       	lock or %rax,0x60(%rbp)
    5539:	48 89 ee             	mov    %rbp,%rsi
    553c:	4c 89 ef             	mov    %r13,%rdi
    553f:	e8 2c fd ff ff       	call   5270 <h8_span_notify>
    5544:	e9 2f ff ff ff       	jmp    5478 <h8_remote_free_publish_known+0xf8>
    5549:	0f 1f 80 00 00 00 00 	nopl   0x0(%rax)
    5550:	0f b6 45 52          	movzbl 0x52(%rbp),%eax
    5554:	83 e8 02             	sub    $0x2,%eax
    5557:	3c 01                	cmp    $0x1,%al
    5559:	76 a8                	jbe    5503 <h8_remote_free_publish_known+0x183>
    555b:	45 89 c9             	mov    %r9d,%r9d
    555e:	45 31 e4             	xor    %r12d,%r12d
    5561:	f0 4c 0f b3 09       	lock btr %r9,(%rcx)
    5566:	41 0f 92 c4          	setb   %r12b
    556a:	45 01 e4             	add    %r12d,%r12d
    556d:	eb 97                	jmp    5506 <h8_remote_free_publish_known+0x186>
    556f:	90                   	nop
    5570:	45 89 c9             	mov    %r9d,%r9d
    5573:	45 31 e4             	xor    %r12d,%r12d
    5576:	f0 4c 0f b3 09       	lock btr %r9,(%rcx)
    557b:	41 0f 92 c4          	setb   %r12b
    557f:	45 01 e4             	add    %r12d,%r12d
    5582:	e9 f4 fe ff ff       	jmp    547b <h8_remote_free_publish_known+0xfb>
    5587:	66 0f 1f 84 00 00 00 00 00 	nopw   0x0(%rax,%rax,1)
    5590:	44 89 c1             	mov    %r8d,%ecx
    5593:	b8 01 00 00 00       	mov    $0x1,%eax
    5598:	48 d3 e0             	shl    %cl,%rax
    559b:	f0 48 09 45 60       	lock or %rax,0x60(%rbp)
    55a0:	48 89 ee             	mov    %rbp,%rsi
    55a3:	4c 89 ef             	mov    %r13,%rdi
    55a6:	e8 c5 fc ff ff       	call   5270 <h8_span_notify>
    55ab:	e9 53 ff ff ff       	jmp    5503 <h8_remote_free_publish_known+0x183>

00000000000055b0 <h8_remote_free_publish>:
    55b0:	f3 0f 1e fa          	endbr64 
    55b4:	48 85 ff             	test   %rdi,%rdi
    55b7:	74 1c                	je     55d5 <h8_remote_free_publish+0x25>
    55b9:	48 8d 05 c0 6a 00 00 	lea    0x6ac0(%rip),%rax        # c080 <h8g>
    55c0:	48 8b 50 10          	mov    0x10(%rax),%rdx
    55c4:	48 39 fa             	cmp    %rdi,%rdx
    55c7:	77 0c                	ja     55d5 <h8_remote_free_publish+0x25>
    55c9:	48 8b 48 18          	mov    0x18(%rax),%rcx
    55cd:	48 01 d1             	add    %rdx,%rcx
    55d0:	48 39 cf             	cmp    %rcx,%rdi
    55d3:	72 0b                	jb     55e0 <h8_remote_free_publish+0x30>
    55d5:	b8 01 00 00 00       	mov    $0x1,%eax
    55da:	c3                   	ret    
    55db:	0f 1f 44 00 00       	nopl   0x0(%rax,%rax,1)
    55e0:	48 89 f9             	mov    %rdi,%rcx
    55e3:	48 8b 40 38          	mov    0x38(%rax),%rax
    55e7:	48 29 d1             	sub    %rdx,%rcx
    55ea:	48 89 ca             	mov    %rcx,%rdx
    55ed:	48 c1 ea 10          	shr    $0x10,%rdx
    55f1:	4c 8b 04 d0          	mov    (%rax,%rdx,8),%r8
    55f5:	4d 85 c0             	test   %r8,%r8
    55f8:	74 db                	je     55d5 <h8_remote_free_publish+0x25>
    55fa:	41 0f b6 40 4e       	movzbl 0x4e(%r8),%eax
    55ff:	3c 05                	cmp    $0x5,%al
    5601:	74 d2                	je     55d5 <h8_remote_free_publish+0x25>
    5603:	41 0f b7 48 08       	movzwl 0x8(%r8),%ecx
    5608:	48 c7 c0 ff ff ff ff 	mov    $0xffffffffffffffff,%rax
    560f:	49 2b 38             	sub    (%r8),%rdi
    5612:	83 c1 04             	add    $0x4,%ecx
    5615:	48 d3 e0             	shl    %cl,%rax
    5618:	48 f7 d0             	not    %rax
    561b:	48 85 f8             	test   %rdi,%rax
    561e:	75 b5                	jne    55d5 <h8_remote_free_publish+0x25>
    5620:	48 89 fe             	mov    %rdi,%rsi
    5623:	41 0f b7 40 0a       	movzwl 0xa(%r8),%eax
    5628:	48 d3 ee             	shr    %cl,%rsi
    562b:	48 39 c6             	cmp    %rax,%rsi
    562e:	73 a5                	jae    55d5 <h8_remote_free_publish+0x25>
    5630:	4c 89 c7             	mov    %r8,%rdi
    5633:	e9 48 fd ff ff       	jmp    5380 <h8_remote_free_publish_known>
    5638:	0f 1f 84 00 00 00 00 00 	nopl   0x0(%rax,%rax,1)

0000000000005640 <h8_span_collect_remote>:
    5640:	f3 0f 1e fa          	endbr64 
    5644:	41 57                	push   %r15
    5646:	48 8d 46 52          	lea    0x52(%rsi),%rax
    564a:	ba 02 00 00 00       	mov    $0x2,%edx
    564f:	41 56                	push   %r14
    5651:	41 55                	push   %r13
    5653:	41 54                	push   %r12
    5655:	55                   	push   %rbp
    5656:	53                   	push   %rbx
    5657:	48 83 ec 38          	sub    $0x38,%rsp
    565b:	48 89 7c 24 28       	mov    %rdi,0x28(%rsp)
    5660:	48 89 c7             	mov    %rax,%rdi
    5663:	48 89 44 24 18       	mov    %rax,0x18(%rsp)
    5668:	b8 01 00 00 00       	mov    $0x1,%eax
    566d:	f0 0f b0 17          	lock cmpxchg %dl,(%rdi)
    5671:	0f 85 d2 01 00 00    	jne    5849 <h8_span_collect_remote+0x209>
    5677:	44 0f b7 7e 0a       	movzwl 0xa(%rsi),%r15d
    567c:	48 8d 46 60          	lea    0x60(%rsi),%rax
    5680:	48 89 f5             	mov    %rsi,%rbp
    5683:	45 31 e4             	xor    %r12d,%r12d
    5686:	48 89 44 24 20       	mov    %rax,0x20(%rsp)
    568b:	49 83 c7 3f          	add    $0x3f,%r15
    568f:	49 c1 ef 06          	shr    $0x6,%r15
    5693:	4c 87 20             	xchg   %r12,(%rax)
    5696:	41 b8 01 00 00 00    	mov    $0x1,%r8d
    569c:	0f 1f 40 00          	nopl   0x0(%rax)
    56a0:	4d 85 e4             	test   %r12,%r12
    56a3:	0f 84 57 01 00 00    	je     5800 <h8_span_collect_remote+0x1c0>
    56a9:	31 db                	xor    %ebx,%ebx
    56ab:	49 8d 44 24 ff       	lea    -0x1(%r12),%rax
    56b0:	f3 49 0f bc dc       	tzcnt  %r12,%rbx
    56b5:	49 21 c4             	and    %rax,%r12
    56b8:	48 63 db             	movslq %ebx,%rbx
    56bb:	4c 39 fb             	cmp    %r15,%rbx
    56be:	73 e0                	jae    56a0 <h8_span_collect_remote+0x60>
    56c0:	49 89 dd             	mov    %rbx,%r13
    56c3:	0f b7 4d 0a          	movzwl 0xa(%rbp),%ecx
    56c7:	48 8d 14 dd 00 00 00 00 	lea    0x0(,%rbx,8),%rdx
    56cf:	49 c1 e5 06          	shl    $0x6,%r13
    56d3:	48 89 d0             	mov    %rdx,%rax
    56d6:	48 89 54 24 08       	mov    %rdx,0x8(%rsp)
    56db:	48 03 45 18          	add    0x18(%rbp),%rax
    56df:	49 39 cd             	cmp    %rcx,%r13
    56e2:	0f 83 78 01 00 00    	jae    5860 <h8_span_collect_remote+0x220>
    56e8:	4c 29 e9             	sub    %r13,%rcx
    56eb:	4d 89 c1             	mov    %r8,%r9
    56ee:	4c 8b 30             	mov    (%rax),%r14
    56f1:	49 d3 e1             	shl    %cl,%r9
    56f4:	49 83 e9 01          	sub    $0x1,%r9
    56f8:	48 83 f9 40          	cmp    $0x40,%rcx
    56fc:	48 c7 c1 ff ff ff ff 	mov    $0xffffffffffffffff,%rcx
    5703:	4c 0f 43 c9          	cmovae %rcx,%r9
    5707:	4d 21 ce             	and    %r9,%r14
    570a:	0f 84 c2 00 00 00    	je     57d2 <h8_span_collect_remote+0x192>
    5710:	4c 89 f7             	mov    %r14,%rdi
    5713:	4c 89 4c 24 10       	mov    %r9,0x10(%rsp)
    5718:	e8 f3 18 00 00       	call   7010 <__popcountdi2>
    571d:	48 8b 7c 24 08       	mov    0x8(%rsp),%rdi
    5722:	4d 89 f2             	mov    %r14,%r10
    5725:	4c 89 f2             	mov    %r14,%rdx
    5728:	48 03 7d 18          	add    0x18(%rbp),%rdi
    572c:	83 f8 01             	cmp    $0x1,%eax
    572f:	48 8b 4d 20          	mov    0x20(%rbp),%rcx
    5733:	49 f7 d2             	not    %r10
    5736:	4c 8b 4c 24 10       	mov    0x10(%rsp),%r9
    573b:	41 b8 01 00 00 00    	mov    $0x1,%r8d
    5741:	75 11                	jne    5754 <h8_span_collect_remote+0x114>
    5743:	e9 28 01 00 00       	jmp    5870 <h8_span_collect_remote+0x230>
    5748:	0f 1f 84 00 00 00 00 00 	nopl   0x0(%rax,%rax,1)
    5750:	48 8b 4d 20          	mov    0x20(%rbp),%rcx
    5754:	31 c0                	xor    %eax,%eax
    5756:	48 8d 72 ff          	lea    -0x1(%rdx),%rsi
    575a:	f3 48 0f bc c2       	tzcnt  %rdx,%rax
    575f:	48 21 f2             	and    %rsi,%rdx
    5762:	48 98                	cltq   
    5764:	4c 01 e8             	add    %r13,%rax
    5767:	8b 04 81             	mov    (%rcx,%rax,4),%eax
    576a:	c1 e8 1e             	shr    $0x1e,%eax
    576d:	83 f8 01             	cmp    $0x1,%eax
    5770:	0f 85 1f bd ff ff    	jne    1495 <h8_span_collect_remote.cold>
    5776:	48 85 d2             	test   %rdx,%rdx
    5779:	75 d5                	jne    5750 <h8_span_collect_remote+0x110>
    577b:	8b b5 84 00 00 00    	mov    0x84(%rbp),%esi
    5781:	4c 89 f2             	mov    %r14,%rdx
    5784:	0f 1f 40 00          	nopl   0x0(%rax)
    5788:	31 c0                	xor    %eax,%eax
    578a:	4c 8b 5d 20          	mov    0x20(%rbp),%r11
    578e:	81 ce 00 00 00 80    	or     $0x80000000,%esi
    5794:	48 8d 4a ff          	lea    -0x1(%rdx),%rcx
    5798:	f3 48 0f bc c2       	tzcnt  %rdx,%rax
    579d:	48 98                	cltq   
    579f:	4c 01 e8             	add    %r13,%rax
    57a2:	41 89 34 83          	mov    %esi,(%r11,%rax,4)
    57a6:	89 c6                	mov    %eax,%esi
    57a8:	48 21 ca             	and    %rcx,%rdx
    57ab:	75 db                	jne    5788 <h8_span_collect_remote+0x148>
    57ad:	48 8b 07             	mov    (%rdi),%rax
    57b0:	48 89 c1             	mov    %rax,%rcx
    57b3:	48 89 c2             	mov    %rax,%rdx
    57b6:	4c 21 d1             	and    %r10,%rcx
    57b9:	f0 48 0f b1 0f       	lock cmpxchg %rcx,(%rdi)
    57be:	75 f0                	jne    57b0 <h8_span_collect_remote+0x170>
    57c0:	4c 21 f2             	and    %r14,%rdx
    57c3:	49 39 d6             	cmp    %rdx,%r14
    57c6:	0f 85 c9 bc ff ff    	jne    1495 <h8_span_collect_remote.cold>
    57cc:	89 b5 84 00 00 00    	mov    %esi,0x84(%rbp)
    57d2:	48 8b 45 18          	mov    0x18(%rbp),%rax
    57d6:	48 8b 04 d8          	mov    (%rax,%rbx,8),%rax
    57da:	49 85 c1             	test   %rax,%r9
    57dd:	0f 84 bd fe ff ff    	je     56a0 <h8_span_collect_remote+0x60>
    57e3:	4c 89 c0             	mov    %r8,%rax
    57e6:	89 d9                	mov    %ebx,%ecx
    57e8:	48 8b 7c 24 20       	mov    0x20(%rsp),%rdi
    57ed:	48 d3 e0             	shl    %cl,%rax
    57f0:	f0 48 09 07          	lock or %rax,(%rdi)
    57f4:	4d 85 e4             	test   %r12,%r12
    57f7:	0f 85 ac fe ff ff    	jne    56a9 <h8_span_collect_remote+0x69>
    57fd:	0f 1f 00             	nopl   (%rax)
    5800:	48 8b 45 60          	mov    0x60(%rbp),%rax
    5804:	48 85 c0             	test   %rax,%rax
    5807:	74 13                	je     581c <h8_span_collect_remote+0x1dc>
    5809:	48 8b 7c 24 18       	mov    0x18(%rsp),%rdi
    580e:	b8 02 00 00 00       	mov    $0x2,%eax
    5813:	ba 03 00 00 00       	mov    $0x3,%edx
    5818:	f0 0f b0 17          	lock cmpxchg %dl,(%rdi)
    581c:	48 8b 7c 24 18       	mov    0x18(%rsp),%rdi
    5821:	b8 02 00 00 00       	mov    $0x2,%eax
    5826:	31 d2                	xor    %edx,%edx
    5828:	f0 0f b0 17          	lock cmpxchg %dl,(%rdi)
    582c:	74 08                	je     5836 <h8_span_collect_remote+0x1f6>
    582e:	3c 03                	cmp    $0x3,%al
    5830:	0f 84 c5 00 00 00    	je     58fb <h8_span_collect_remote+0x2bb>
    5836:	48 8b 45 40          	mov    0x40(%rbp),%rax
    583a:	48 c1 e8 16          	shr    $0x16,%rax
    583e:	83 e0 07             	and    $0x7,%eax
    5841:	3c 01                	cmp    $0x1,%al
    5843:	0f 84 7f 00 00 00    	je     58c8 <h8_span_collect_remote+0x288>
    5849:	48 83 c4 38          	add    $0x38,%rsp
    584d:	5b                   	pop    %rbx
    584e:	5d                   	pop    %rbp
    584f:	41 5c                	pop    %r12
    5851:	41 5d                	pop    %r13
    5853:	41 5e                	pop    %r14
    5855:	41 5f                	pop    %r15
    5857:	c3                   	ret    
    5858:	0f 1f 84 00 00 00 00 00 	nopl   0x0(%rax,%rax,1)
    5860:	48 8b 00             	mov    (%rax),%rax
    5863:	48 8b 45 18          	mov    0x18(%rbp),%rax
    5867:	48 8b 04 d8          	mov    (%rax,%rbx,8),%rax
    586b:	e9 30 fe ff ff       	jmp    56a0 <h8_span_collect_remote+0x60>
    5870:	31 d2                	xor    %edx,%edx
    5872:	f3 49 0f bc d6       	tzcnt  %r14,%rdx
    5877:	48 63 d2             	movslq %edx,%rdx
    587a:	4c 01 ea             	add    %r13,%rdx
    587d:	8b 04 91             	mov    (%rcx,%rdx,4),%eax
    5880:	c1 e8 1e             	shr    $0x1e,%eax
    5883:	83 f8 01             	cmp    $0x1,%eax
    5886:	0f 85 09 bc ff ff    	jne    1495 <h8_span_collect_remote.cold>
    588c:	8b 85 84 00 00 00    	mov    0x84(%rbp),%eax
    5892:	48 8b 4d 20          	mov    0x20(%rbp),%rcx
    5896:	0d 00 00 00 80       	or     $0x80000000,%eax
    589b:	89 04 91             	mov    %eax,(%rcx,%rdx,4)
    589e:	48 8b 07             	mov    (%rdi),%rax
    58a1:	48 89 c6             	mov    %rax,%rsi
    58a4:	48 89 c1             	mov    %rax,%rcx
    58a7:	4c 21 d6             	and    %r10,%rsi
    58aa:	f0 48 0f b1 37       	lock cmpxchg %rsi,(%rdi)
    58af:	75 f0                	jne    58a1 <h8_span_collect_remote+0x261>
    58b1:	49 85 ce             	test   %rcx,%r14
    58b4:	0f 84 db bb ff ff    	je     1495 <h8_span_collect_remote.cold>
    58ba:	89 95 84 00 00 00    	mov    %edx,0x84(%rbp)
    58c0:	e9 0d ff ff ff       	jmp    57d2 <h8_span_collect_remote+0x192>
    58c5:	0f 1f 00             	nopl   (%rax)
    58c8:	0f b7 45 50          	movzwl 0x50(%rbp),%eax
    58cc:	66 85 c0             	test   %ax,%ax
    58cf:	0f 85 74 ff ff ff    	jne    5849 <h8_span_collect_remote+0x209>
    58d5:	48 89 ef             	mov    %rbp,%rdi
    58d8:	e8 03 f9 ff ff       	call   51e0 <h8_span_pending_quiescent>
    58dd:	84 c0                	test   %al,%al
    58df:	0f 84 64 ff ff ff    	je     5849 <h8_span_collect_remote+0x209>
    58e5:	48 83 c4 38          	add    $0x38,%rsp
    58e9:	48 89 ef             	mov    %rbp,%rdi
    58ec:	5b                   	pop    %rbx
    58ed:	5d                   	pop    %rbp
    58ee:	41 5c                	pop    %r12
    58f0:	41 5d                	pop    %r13
    58f2:	41 5e                	pop    %r14
    58f4:	41 5f                	pop    %r15
    58f6:	e9 15 e8 ff ff       	jmp    4110 <h8_span_mark_orphan_ready>
    58fb:	48 8b 7c 24 18       	mov    0x18(%rsp),%rdi
    5900:	ba 01 00 00 00       	mov    $0x1,%edx
    5905:	f0 0f b0 17          	lock cmpxchg %dl,(%rdi)
    5909:	0f 85 27 ff ff ff    	jne    5836 <h8_span_collect_remote+0x1f6>
    590f:	48 8b 44 24 28       	mov    0x28(%rsp),%rax
    5914:	48 8d 50 60          	lea    0x60(%rax),%rdx
    5918:	48 8b 40 60          	mov    0x60(%rax),%rax
    591c:	48 89 85 98 00 00 00 	mov    %rax,0x98(%rbp)
    5923:	f0 48 0f b1 2a       	lock cmpxchg %rbp,(%rdx)
    5928:	75 f2                	jne    591c <h8_span_collect_remote+0x2dc>
    592a:	48 8b 44 24 28       	mov    0x28(%rsp),%rax
    592f:	f0 48 83 40 68 01    	lock addq $0x1,0x68(%rax)
    5935:	e9 fc fe ff ff       	jmp    5836 <h8_span_collect_remote+0x1f6>
    593a:	66 0f 1f 44 00 00    	nopw   0x0(%rax,%rax,1)

0000000000005940 <h8_collect_owner_pending_budget>:
    5940:	f3 0f 1e fa          	endbr64 
    5944:	48 85 ff             	test   %rdi,%rdi
    5947:	0f 84 43 01 00 00    	je     5a90 <h8_collect_owner_pending_budget+0x150>
    594d:	41 57                	push   %r15
    594f:	41 56                	push   %r14
    5951:	41 55                	push   %r13
    5953:	41 54                	push   %r12
    5955:	49 89 f4             	mov    %rsi,%r12
    5958:	55                   	push   %rbp
    5959:	53                   	push   %rbx
    595a:	48 83 ec 08          	sub    $0x8,%rsp
    595e:	48 85 f6             	test   %rsi,%rsi
    5961:	0f 84 a9 00 00 00    	je     5a10 <h8_collect_owner_pending_budget+0xd0>
    5967:	4c 8d b7 08 01 00 00 	lea    0x108(%rdi),%r14
    596e:	48 89 fd             	mov    %rdi,%rbp
    5971:	4c 89 f7             	mov    %r14,%rdi
    5974:	e8 e7 ba ff ff       	call   1460 <pthread_mutex_lock@plt>
    5979:	48 8b 75 70          	mov    0x70(%rbp),%rsi
    597d:	48 c7 45 70 00 00 00 00 	movq   $0x0,0x70(%rbp)
    5985:	48 85 f6             	test   %rsi,%rsi
    5988:	0f 84 92 00 00 00    	je     5a20 <h8_collect_owner_pending_budget+0xe0>
    598e:	48 8b 9e 98 00 00 00 	mov    0x98(%rsi),%rbx
    5995:	4c 8d 6d 68          	lea    0x68(%rbp),%r13
    5999:	45 31 ff             	xor    %r15d,%r15d
    599c:	48 c7 86 98 00 00 00 00 00 00 00 	movq   $0x0,0x98(%rsi)
    59a7:	eb 28                	jmp    59d1 <h8_collect_owner_pending_budget+0x91>
    59a9:	0f 1f 80 00 00 00 00 	nopl   0x0(%rax)
    59b0:	48 8b 83 98 00 00 00 	mov    0x98(%rbx),%rax
    59b7:	48 89 de             	mov    %rbx,%rsi
    59ba:	48 c7 83 98 00 00 00 00 00 00 00 	movq   $0x0,0x98(%rbx)
    59c5:	4d 39 fc             	cmp    %r15,%r12
    59c8:	0f 84 ae 00 00 00    	je     5a7c <h8_collect_owner_pending_budget+0x13c>
    59ce:	48 89 c3             	mov    %rax,%rbx
    59d1:	48 89 ef             	mov    %rbp,%rdi
    59d4:	e8 67 fc ff ff       	call   5640 <h8_span_collect_remote>
    59d9:	f0 49 83 6d 00 01    	lock subq $0x1,0x0(%r13)
    59df:	49 83 c7 01          	add    $0x1,%r15
    59e3:	48 85 db             	test   %rbx,%rbx
    59e6:	75 c8                	jne    59b0 <h8_collect_owner_pending_budget+0x70>
    59e8:	4d 39 fc             	cmp    %r15,%r12
    59eb:	0f 87 a0 00 00 00    	ja     5a91 <h8_collect_owner_pending_budget+0x151>
    59f1:	48 83 c4 08          	add    $0x8,%rsp
    59f5:	4c 89 f7             	mov    %r14,%rdi
    59f8:	5b                   	pop    %rbx
    59f9:	5d                   	pop    %rbp
    59fa:	41 5c                	pop    %r12
    59fc:	41 5d                	pop    %r13
    59fe:	41 5e                	pop    %r14
    5a00:	41 5f                	pop    %r15
    5a02:	e9 89 b9 ff ff       	jmp    1390 <pthread_mutex_unlock@plt>
    5a07:	66 0f 1f 84 00 00 00 00 00 	nopw   0x0(%rax,%rax,1)
    5a10:	48 83 c4 08          	add    $0x8,%rsp
    5a14:	5b                   	pop    %rbx
    5a15:	5d                   	pop    %rbp
    5a16:	41 5c                	pop    %r12
    5a18:	41 5d                	pop    %r13
    5a1a:	41 5e                	pop    %r14
    5a1c:	41 5f                	pop    %r15
    5a1e:	c3                   	ret    
    5a1f:	90                   	nop
    5a20:	48 87 75 60          	xchg   %rsi,0x60(%rbp)
    5a24:	48 85 f6             	test   %rsi,%rsi
    5a27:	74 c8                	je     59f1 <h8_collect_owner_pending_budget+0xb1>
    5a29:	48 8b 9e 98 00 00 00 	mov    0x98(%rsi),%rbx
    5a30:	4c 8d 6d 68          	lea    0x68(%rbp),%r13
    5a34:	48 c7 86 98 00 00 00 00 00 00 00 	movq   $0x0,0x98(%rsi)
    5a3f:	45 31 ff             	xor    %r15d,%r15d
    5a42:	eb 07                	jmp    5a4b <h8_collect_owner_pending_budget+0x10b>
    5a44:	0f 1f 40 00          	nopl   0x0(%rax)
    5a48:	48 89 c3             	mov    %rax,%rbx
    5a4b:	48 89 ef             	mov    %rbp,%rdi
    5a4e:	e8 ed fb ff ff       	call   5640 <h8_span_collect_remote>
    5a53:	f0 49 83 6d 00 01    	lock subq $0x1,0x0(%r13)
    5a59:	49 83 c7 01          	add    $0x1,%r15
    5a5d:	48 85 db             	test   %rbx,%rbx
    5a60:	74 8f                	je     59f1 <h8_collect_owner_pending_budget+0xb1>
    5a62:	48 8b 83 98 00 00 00 	mov    0x98(%rbx),%rax
    5a69:	48 89 de             	mov    %rbx,%rsi
    5a6c:	48 c7 83 98 00 00 00 00 00 00 00 	movq   $0x0,0x98(%rbx)
    5a77:	4d 39 fc             	cmp    %r15,%r12
    5a7a:	75 cc                	jne    5a48 <h8_collect_owner_pending_budget+0x108>
    5a7c:	48 89 83 98 00 00 00 	mov    %rax,0x98(%rbx)
    5a83:	48 89 5d 70          	mov    %rbx,0x70(%rbp)
    5a87:	e9 65 ff ff ff       	jmp    59f1 <h8_collect_owner_pending_budget+0xb1>
    5a8c:	0f 1f 40 00          	nopl   0x0(%rax)
    5a90:	c3                   	ret    
    5a91:	48 87 5d 60          	xchg   %rbx,0x60(%rbp)
    5a95:	48 89 de             	mov    %rbx,%rsi
    5a98:	4d 29 fc             	sub    %r15,%r12
    5a9b:	48 85 db             	test   %rbx,%rbx
    5a9e:	0f 84 4d ff ff ff    	je     59f1 <h8_collect_owner_pending_budget+0xb1>
    5aa4:	48 8b 9b 98 00 00 00 	mov    0x98(%rbx),%rbx
    5aab:	48 c7 86 98 00 00 00 00 00 00 00 	movq   $0x0,0x98(%rsi)
    5ab6:	eb 87                	jmp    5a3f <h8_collect_owner_pending_budget+0xff>
    5ab8:	0f 1f 84 00 00 00 00 00 	nopl   0x0(%rax,%rax,1)

0000000000005ac0 <h8_collect_owner_pending>:
    5ac0:	f3 0f 1e fa          	endbr64 
    5ac4:	48 c7 c6 ff ff ff ff 	mov    $0xffffffffffffffff,%rsi
    5acb:	e9 70 fe ff ff       	jmp    5940 <h8_collect_owner_pending_budget>

0000000000005ad0 <h8_slot_state_load_acquire>:
    5ad0:	f3 0f 1e fa          	endbr64 
    5ad4:	48 8b 47 20          	mov    0x20(%rdi),%rax
    5ad8:	48 85 c0             	test   %rax,%rax
    5adb:	74 0b                	je     5ae8 <h8_slot_state_load_acquire+0x18>
    5add:	8b 04 b0             	mov    (%rax,%rsi,4),%eax
    5ae0:	c3                   	ret    
    5ae1:	0f 1f 80 00 00 00 00 	nopl   0x0(%rax)
    5ae8:	b8 00 00 00 c0       	mov    $0xc0000000,%eax
    5aed:	c3                   	ret    
    5aee:	66 90                	xchg   %ax,%ax

0000000000005af0 <h8_slot_shadow_set_allocated>:
    5af0:	f3 0f 1e fa          	endbr64 
    5af4:	48 8b 47 20          	mov    0x20(%rdi),%rax
    5af8:	48 85 c0             	test   %rax,%rax
    5afb:	74 07                	je     5b04 <h8_slot_shadow_set_allocated+0x14>
    5afd:	c7 04 b0 00 00 00 40 	movl   $0x40000000,(%rax,%rsi,4)
    5b04:	c3                   	ret    
    5b05:	66 66 2e 0f 1f 84 00 00 00 00 00 	data16 cs nopw 0x0(%rax,%rax,1)

0000000000005b10 <h8_slot_shadow_set_free>:
    5b10:	f3 0f 1e fa          	endbr64 
    5b14:	48 8b 47 20          	mov    0x20(%rdi),%rax
    5b18:	48 85 c0             	test   %rax,%rax
    5b1b:	74 09                	je     5b26 <h8_slot_shadow_set_free+0x16>
    5b1d:	81 ca 00 00 00 80    	or     $0x80000000,%edx
    5b23:	89 14 b0             	mov    %edx,(%rax,%rsi,4)
    5b26:	c3                   	ret    
    5b27:	66 0f 1f 84 00 00 00 00 00 	nopw   0x0(%rax,%rax,1)

0000000000005b30 <h8_slot_allocated_count_quiescent>:
    5b30:	f3 0f 1e fa          	endbr64 
    5b34:	41 54                	push   %r12
    5b36:	55                   	push   %rbp
    5b37:	53                   	push   %rbx
    5b38:	48 85 ff             	test   %rdi,%rdi
    5b3b:	74 53                	je     5b90 <h8_slot_allocated_count_quiescent+0x60>
    5b3d:	48 83 7f 20 00       	cmpq   $0x0,0x20(%rdi)
    5b42:	48 89 fd             	mov    %rdi,%rbp
    5b45:	74 49                	je     5b90 <h8_slot_allocated_count_quiescent+0x60>
    5b47:	66 83 7f 0a 00       	cmpw   $0x0,0xa(%rdi)
    5b4c:	74 42                	je     5b90 <h8_slot_allocated_count_quiescent+0x60>
    5b4e:	31 db                	xor    %ebx,%ebx
    5b50:	45 31 e4             	xor    %r12d,%r12d
    5b53:	0f 1f 44 00 00       	nopl   0x0(%rax,%rax,1)
    5b58:	48 89 de             	mov    %rbx,%rsi
    5b5b:	48 89 ef             	mov    %rbp,%rdi
    5b5e:	e8 6d ff ff ff       	call   5ad0 <h8_slot_state_load_acquire>
    5b63:	c1 e8 1e             	shr    $0x1e,%eax
    5b66:	83 f8 01             	cmp    $0x1,%eax
    5b69:	0f 94 c0             	sete   %al
    5b6c:	48 83 c3 01          	add    $0x1,%rbx
    5b70:	0f b6 c0             	movzbl %al,%eax
    5b73:	49 01 c4             	add    %rax,%r12
    5b76:	0f b7 45 0a          	movzwl 0xa(%rbp),%eax
    5b7a:	48 39 d8             	cmp    %rbx,%rax
    5b7d:	77 d9                	ja     5b58 <h8_slot_allocated_count_quiescent+0x28>
    5b7f:	4c 89 e0             	mov    %r12,%rax
    5b82:	5b                   	pop    %rbx
    5b83:	5d                   	pop    %rbp
    5b84:	41 5c                	pop    %r12
    5b86:	c3                   	ret    
    5b87:	66 0f 1f 84 00 00 00 00 00 	nopw   0x0(%rax,%rax,1)
    5b90:	45 31 e4             	xor    %r12d,%r12d
    5b93:	5b                   	pop    %rbx
    5b94:	5d                   	pop    %rbp
    5b95:	4c 89 e0             	mov    %r12,%rax
    5b98:	41 5c                	pop    %r12
    5b9a:	c3                   	ret    
    5b9b:	0f 1f 44 00 00       	nopl   0x0(%rax,%rax,1)

0000000000005ba0 <h8_slot_shadow_expect>:
    5ba0:	f3 0f 1e fa          	endbr64 
    5ba4:	c3                   	ret    
    5ba5:	66 66 2e 0f 1f 84 00 00 00 00 00 	data16 cs nopw 0x0(%rax,%rax,1)

0000000000005bb0 <h8_slot_shadow_verify_span>:
    5bb0:	f3 0f 1e fa          	endbr64 
    5bb4:	c3                   	ret    
    5bb5:	66 66 2e 0f 1f 84 00 00 00 00 00 	data16 cs nopw 0x0(%rax,%rax,1)

0000000000005bc0 <h8_slot_shadow_verify_span_quiescent>:
    5bc0:	f3 0f 1e fa          	endbr64 
    5bc4:	c3                   	ret    
    5bc5:	66 2e 0f 1f 84 00 00 00 00 00 	cs nopw 0x0(%rax,%rax,1)
    5bcf:	90                   	nop

0000000000005bd0 <h8_find_active_span>:
    5bd0:	41 55                	push   %r13
    5bd2:	41 89 d5             	mov    %edx,%r13d
    5bd5:	41 54                	push   %r12
    5bd7:	55                   	push   %rbp
    5bd8:	53                   	push   %rbx
    5bd9:	48 89 f3             	mov    %rsi,%rbx
    5bdc:	48 83 ec 08          	sub    $0x8,%rsp
    5be0:	4e 8b 64 ef 08       	mov    0x8(%rdi,%r13,8),%r12
    5be5:	4d 85 e4             	test   %r12,%r12
    5be8:	74 0e                	je     5bf8 <h8_find_active_span+0x28>
    5bea:	41 0f b7 44 24 08    	movzwl 0x8(%r12),%eax
    5bf0:	39 c2                	cmp    %eax,%edx
    5bf2:	0f 84 88 00 00 00    	je     5c80 <h8_find_active_span+0xb0>
    5bf8:	48 8d ab e0 00 00 00 	lea    0xe0(%rbx),%rbp
    5bff:	48 89 ef             	mov    %rbp,%rdi
    5c02:	e8 59 b8 ff ff       	call   1460 <pthread_mutex_lock@plt>
    5c07:	4e 8b 64 eb 18       	mov    0x18(%rbx,%r13,8),%r12
    5c0c:	4d 85 e4             	test   %r12,%r12
    5c0f:	74 4e                	je     5c5f <h8_find_active_span+0x8f>
    5c11:	41 0f b6 44 24 4e    	movzbl 0x4e(%r12),%eax
    5c17:	84 c0                	test   %al,%al
    5c19:	75 37                	jne    5c52 <h8_find_active_span+0x82>
    5c1b:	41 8b 84 24 84 00 00 00 	mov    0x84(%r12),%eax
    5c23:	3d ff ff ff 3f       	cmp    $0x3fffffff,%eax
    5c28:	74 16                	je     5c40 <h8_find_active_span+0x70>
    5c2a:	48 89 ef             	mov    %rbp,%rdi
    5c2d:	e8 5e b7 ff ff       	call   1390 <pthread_mutex_unlock@plt>
    5c32:	48 83 c4 08          	add    $0x8,%rsp
    5c36:	4c 89 e0             	mov    %r12,%rax
    5c39:	5b                   	pop    %rbx
    5c3a:	5d                   	pop    %rbp
    5c3b:	41 5c                	pop    %r12
    5c3d:	41 5d                	pop    %r13
    5c3f:	c3                   	ret    
    5c40:	41 8b 94 24 80 00 00 00 	mov    0x80(%r12),%edx
    5c48:	41 0f b7 44 24 0a    	movzwl 0xa(%r12),%eax
    5c4e:	39 c2                	cmp    %eax,%edx
    5c50:	72 d8                	jb     5c2a <h8_find_active_span+0x5a>
    5c52:	4d 8b a4 24 90 00 00 00 	mov    0x90(%r12),%r12
    5c5a:	4d 85 e4             	test   %r12,%r12
    5c5d:	75 b2                	jne    5c11 <h8_find_active_span+0x41>
    5c5f:	48 89 ef             	mov    %rbp,%rdi
    5c62:	45 31 e4             	xor    %r12d,%r12d
    5c65:	e8 26 b7 ff ff       	call   1390 <pthread_mutex_unlock@plt>
    5c6a:	48 83 c4 08          	add    $0x8,%rsp
    5c6e:	4c 89 e0             	mov    %r12,%rax
    5c71:	5b                   	pop    %rbx
    5c72:	5d                   	pop    %rbp
    5c73:	41 5c                	pop    %r12
    5c75:	41 5d                	pop    %r13
    5c77:	c3                   	ret    
